Certificate:
    Data:
        Version: 3 (0x2)
        Serial Number: 305419898 (0x1234567a)
    Signature Algorithm: sha256WithRSAEncryption
        Issuer: CN=SRK1_sha256_4096_65537_v3_ca
        Validity
            Not Before: Apr 23 19:44:47 2018 GMT
            Not After : Apr 20 19:44:47 2028 GMT
        Subject: CN=IMG1_1_sha256_4096_65537_v3_usr
        Subject Public Key Info:
            Public Key Algorithm: rsaEncryption
                Public-Key: (4096 bit)
                Modulus:
                    00:e2:47:67:a1:03:30:3a:18:7a:10:bf:9e:b9:f5:
                    c5:98:18:5f:62:b2:81:11:6f:d2:ba:ed:71:c7:1f:
                    e0:7c:7d:a9:58:75:4b:99:ac:bb:4f:64:5e:ea:a8:
                    f2:23:a4:4b:38:0e:13:09:a9:de:8f:63:5a:8b:10:
                    80:c1:19:4b:ca:a2:76:36:83:6b:08:c4:be:6f:4d:
                    89:0f:df:5a:39:ff:74:72:0d:4e:b1:60:d1:f1:21:
                    30:ae:40:c7:8c:81:74:80:93:4e:47:b5:cb:00:0b:
                    e1:55:8d:ac:93:63:f5:48:b0:dd:f5:91:b6:ca:50:
                    3c:ab:31:8e:e5:ac:ac:a1:18:a2:0d:e3:37:1e:2e:
                    f9:ee:72:58:f7:2c:52:f8:ff:0c:2a:33:c2:f0:18:
                    13:b1:3a:5d:ed:48:be:78:b2:a5:c0:05:96:db:a1:
                    b3:28:a0:2a:52:a7:1a:68:3f:c9:76:d4:fd:2e:c1:
                    ae:f7:9a:57:87:e8:0d:f9:1c:5c:b6:cd:39:b7:98:
                    e0:8d:1c:b3:e8:d0:97:c5:64:bb:c4:07:ad:44:7d:
                    03:09:eb:81:b6:3b:3d:4f:c5:c8:a6:ae:58:cd:ee:
                    a4:79:8b:5b:33:91:2b:9d:8e:95:40:3c:06:16:02:
                    54:74:c0:6b:b4:80:a5:4e:fd:37:28:bd:be:2b:6e:
                    c6:15:fa:6d:62:39:37:37:39:83:7f:2e:9a:06:ed:
                    83:fd:d6:99:52:16:1a:24:1b:4a:fe:56:f5:37:c3:
                    6b:63:59:df:e8:bb:4f:72:dc:5f:64:8e:3a:16:54:
                    83:29:e2:fe:30:73:8e:65:f4:06:6a:33:29:f5:67:
                    30:c2:88:c8:56:84:6e:ed:25:2f:17:2a:7f:f8:4e:
                    6b:d7:f7:e5:04:b6:59:be:2e:c1:0b:4f:13:26:bb:
                    a8:a0:93:8e:c0:45:e1:76:1c:02:82:4d:bd:36:22:
                    3a:93:1c:f8:f1:4c:c7:79:ec:22:25:c7:00:bf:06:
                    d2:6f:39:22:fc:b6:2c:fa:82:4a:83:72:51:f6:6f:
                    54:65:bf:c5:d6:79:34:f0:fd:97:ee:ce:f3:74:d6:
                    dc:c2:d4:2b:df:c4:d1:e7:08:ad:bd:bf:2b:2b:91:
                    90:3c:2d:1d:ce:b6:0b:88:28:6e:06:13:f9:3e:c8:
                    c4:c1:33:4d:1c:47:5d:ac:fe:3d:f8:bf:85:51:2f:
                    6b:0d:6a:1d:91:c1:45:23:d1:24:b8:35:17:4b:e3:
                    2a:0d:a8:3c:15:10:a6:3c:4d:de:0d:d5:a7:e6:b5:
                    56:a0:ad:b0:22:9a:f8:28:4e:6c:83:0e:ae:c2:73:
                    69:cb:af:b3:35:8d:b4:c4:ba:5a:13:b7:69:3b:43:
                    77:fd:c5
                Exponent: 65537 (0x10001)
        X509v3 extensions:
            X509v3 Basic Constraints: 
                CA:FALSE
            Netscape Comment: 
                OpenSSL Generated Certificate
            X509v3 Subject Key Identifier: 
                4B:44:52:13:83:72:16:9B:66:5A:64:25:00:44:EA:F0:09:25:1C:4A
            X509v3 Authority Key Identifier: 
                keyid:10:D7:87:5C:CC:4A:FC:DF:23:D1:CB:90:C6:01:35:D3:E9:B1:8F:DE

    Signature Algorithm: sha256WithRSAEncryption
         20:b4:82:55:fd:7b:ea:c7:b3:f4:02:0d:49:6f:0e:94:18:0d:
         eb:d5:25:9d:04:d6:04:3f:cc:7d:44:02:e4:c0:eb:fb:9d:d6:
         df:d2:f9:43:51:88:07:b6:d5:20:52:56:79:d2:4d:0f:d5:ac:
         1e:02:c3:dd:ea:e9:b9:22:46:40:c0:9d:3c:d9:51:4e:25:a5:
         93:2e:a9:67:f8:86:29:1c:d8:c1:b1:7a:be:fd:84:0f:93:74:
         5d:7c:50:cb:8d:e2:c6:00:1f:8a:96:e2:c0:ef:29:56:fc:06:
         dd:ec:66:ee:fb:cb:7c:da:0d:fa:9f:84:25:95:4e:3d:72:6d:
         e5:57:f5:3e:62:d8:bc:49:e1:48:74:d4:2c:81:8a:30:b1:ce:
         96:99:9d:80:74:bb:63:cf:e6:f1:26:a9:a2:04:76:30:8e:dc:
         42:2f:15:aa:b6:ca:80:13:7e:e3:c9:e2:6b:cb:5a:57:d5:f3:
         c8:29:bc:10:82:8e:ad:d8:7a:2b:51:92:ad:76:23:af:b1:ce:
         34:d8:6c:80:11:a1:53:07:34:f8:cc:18:ec:c3:44:02:56:19:
         b0:c6:66:75:63:54:6a:4c:5c:42:65:e5:f5:79:9d:92:df:70:
         60:11:89:c2:6c:27:f7:9f:da:16:a6:dd:89:cb:0a:77:f9:54:
         13:43:3f:cd:3b:0b:f4:16:2a:54:49:80:fb:73:01:2f:04:08:
         88:74:0c:d1:b2:fa:df:1e:19:a0:7f:cd:95:5c:a3:57:03:41:
         f0:03:de:93:80:d1:29:b7:71:ef:eb:6d:48:c0:fe:70:1b:b4:
         2f:3b:a4:9c:87:1a:9e:71:f2:fe:c4:3a:45:64:fc:8b:5b:43:
         a1:80:d2:79:e0:7a:a7:0f:6d:90:92:ed:69:73:c7:75:26:88:
         ad:0e:2e:7c:65:7f:25:44:7a:28:b4:b3:de:27:a5:a8:8b:cf:
         02:c2:1a:82:29:39:fe:a0:50:f8:97:77:fe:eb:ae:da:12:e9:
         fb:f1:c3:3a:80:bb:cd:62:fb:31:44:b3:07:ea:4f:65:7e:07:
         e1:9b:5f:31:d1:9e:e7:0b:bd:0a:ec:37:0c:e9:d5:12:ff:8b:
         34:71:69:25:f3:64:57:9d:a1:a7:86:74:ee:de:16:e4:a9:ec:
         c6:89:8c:64:3e:ef:77:1c:49:df:1c:0e:ad:99:59:94:27:ab:
         9f:b9:9e:1d:cf:2c:73:5a:69:32:fe:55:22:7e:83:c7:99:3e:
         a9:8d:3d:0e:35:f6:45:22:2c:dd:93:ed:db:9b:0c:2f:d4:60:
         e3:a2:fa:0f:05:f6:70:1f:b0:bb:03:5c:1e:74:ec:c2:81:21:
         b5:6e:2c:01:de:2a:74:aa
-----BEGIN CERTIFICATE-----
MIIFSjCCAzKgAwIBAgIEEjRWejANBgkqhkiG9w0BAQsFADAnMSUwIwYDVQQDDBxT
UksxX3NoYTI1Nl80MDk2XzY1NTM3X3YzX2NhMB4XDTE4MDQyMzE5NDQ0N1oXDTI4
MDQyMDE5NDQ0N1owKjEoMCYGA1UEAwwfSU1HMV8xX3NoYTI1Nl80MDk2XzY1NTM3
X3YzX3VzcjCCAiIwDQYJKoZIhvcNAQEBBQADggIPADCCAgoCggIBAOJHZ6EDMDoY
ehC/nrn1xZgYX2KygRFv0rrtcccf4Hx9qVh1S5msu09kXuqo8iOkSzgOEwmp3o9j
WosQgMEZS8qidjaDawjEvm9NiQ/fWjn/dHINTrFg0fEhMK5Ax4yBdICTTke1ywAL
4VWNrJNj9Uiw3fWRtspQPKsxjuWsrKEYog3jNx4u+e5yWPcsUvj/DCozwvAYE7E6
Xe1IvniypcAFltuhsyigKlKnGmg/yXbU/S7BrveaV4foDfkcXLbNObeY4I0cs+jQ
l8Vku8QHrUR9AwnrgbY7PU/FyKauWM3upHmLWzORK52OlUA8BhYCVHTAa7SApU79
Nyi9vituxhX6bWI5Nzc5g38umgbtg/3WmVIWGiQbSv5W9TfDa2NZ3+i7T3LcX2SO
OhZUgyni/jBzjmX0BmozKfVnMMKIyFaEbu0lLxcqf/hOa9f35QS2Wb4uwQtPEya7
qKCTjsBF4XYcAoJNvTYiOpMc+PFMx3nsIiXHAL8G0m85Ivy2LPqCSoNyUfZvVGW/
xdZ5NPD9l+7O83TW3MLUK9/E0ecIrb2/KyuRkDwtHc62C4gobgYT+T7IxMEzTRxH
Xaz+Pfi/hVEvaw1qHZHBRSPRJLg1F0vjKg2oPBUQpjxN3g3Vp+a1VqCtsCKa+ChO
bIMOrsJzacuvszWNtMS6WhO3aTtDd/3FAgMBAAGjezB5MAkGA1UdEwQCMAAwLAYJ
YIZIAYb4QgENBB8WHU9wZW5TU0wgR2VuZXJhdGVkIENlcnRpZmljYXRlMB0GA1Ud
DgQWBBRLRFITg3IWm2ZaZCUAROrwCSUcSjAfBgNVHSMEGDAWgBQQ14dczEr83yPR
y5DGATXT6bGP3jANBgkqhkiG9w0BAQsFAAOCAgEAILSCVf176sez9AINSW8OlBgN
69UlnQTWBD/MfUQC5MDr+53W39L5Q1GIB7bVIFJWedJND9WsHgLD3erpuSJGQMCd
PNlRTiWlky6pZ/iGKRzYwbF6vv2ED5N0XXxQy43ixgAfipbiwO8pVvwG3exm7vvL
fNoN+p+EJZVOPXJt5Vf1PmLYvEnhSHTULIGKMLHOlpmdgHS7Y8/m8SapogR2MI7c
Qi8VqrbKgBN+48nia8taV9XzyCm8EIKOrdh6K1GSrXYjr7HONNhsgBGhUwc0+MwY
7MNEAlYZsMZmdWNUakxcQmXl9Xmdkt9wYBGJwmwn95/aFqbdicsKd/lUE0M/zTsL
9BYqVEmA+3MBLwQIiHQM0bL63x4ZoH/NlVyjVwNB8APek4DRKbdx7+ttSMD+cBu0
LzuknIcannHy/sQ6RWT8i1tDoYDSeeB6pw9tkJLtaXPHdSaIrQ4ufGV/JUR6KLSz
3ielqIvPAsIagik5/qBQ+Jd3/uuu2hLp+/HDOoC7zWL7MUSzB+pPZX4H4ZtfMdGe
5wu9Cuw3DOnVEv+LNHFpJfNkV52hp4Z07t4W5KnsxomMZD7vdxxJ3xwOrZlZlCer
n7meHc8sc1ppMv5VIn6Dx5k+qY09DjX2RSIs3ZPt25sML9Rg46L6DwX2cB+wuwNc
HnTswoEhtW4sAd4qdKo=
-----END CERTIFICATE-----
