Certificate:
    Data:
        Version: 3 (0x2)
        Serial Number: 305419904 (0x12345680)
    Signature Algorithm: sha256WithRSAEncryption
        Issuer: CN=SRK3_sha256_4096_65537_v3_ca
        Validity
            Not Before: Apr 23 19:44:51 2018 GMT
            Not After : Apr 20 19:44:51 2028 GMT
        Subject: CN=IMG3_1_sha256_4096_65537_v3_usr
        Subject Public Key Info:
            Public Key Algorithm: rsaEncryption
                Public-Key: (4096 bit)
                Modulus:
                    00:d2:26:4f:f1:57:4c:7e:7c:e7:3c:1b:97:e4:27:
                    49:ef:a0:73:e2:6d:c6:7d:72:6d:bf:20:d0:69:74:
                    5f:67:db:76:59:08:b7:24:65:2b:9a:c1:2f:2e:f7:
                    6c:7d:70:53:be:ec:bc:c2:ea:ec:06:1d:78:40:c7:
                    d2:ed:64:b0:3e:06:1f:e6:d9:17:e8:76:fb:f0:9d:
                    e0:37:f0:54:b9:5a:ce:2b:3e:2a:0d:db:27:0c:0c:
                    37:f7:e2:f1:3e:ed:4a:c4:ef:bd:f7:fc:8e:34:b6:
                    c8:2c:34:8c:70:94:96:a9:a9:6a:73:ce:bc:8d:61:
                    6c:c6:24:5f:d1:7b:e9:4d:91:d8:db:f1:f8:9b:b2:
                    33:6d:ff:71:b1:54:9e:15:94:00:af:d7:11:26:80:
                    ff:82:13:14:8f:84:bf:23:57:f2:b7:6b:ba:98:5d:
                    67:c9:c8:87:ea:be:6d:85:6f:c0:84:cc:e5:6c:75:
                    5d:1f:58:a9:94:0f:bd:83:16:86:1c:7b:21:15:38:
                    6e:ee:e3:d2:d5:95:3d:d9:d9:27:bd:bd:92:bb:c8:
                    45:4f:25:6c:e1:96:93:df:a1:88:42:d3:14:30:2c:
                    36:4f:ff:67:5a:86:15:40:ce:fa:ca:a0:7e:e5:d2:
                    97:41:90:1e:f5:79:cf:60:3f:9a:e8:f0:30:03:d9:
                    06:45:bd:e7:6b:04:08:de:c0:56:75:1e:a9:6b:0a:
                    6b:25:8a:14:c3:db:a0:59:e6:58:b0:81:24:b1:df:
                    31:69:0e:75:d3:69:f4:c8:fa:bd:de:08:4a:e9:87:
                    e1:25:19:2a:5b:3e:ba:70:aa:81:b0:a2:70:55:d7:
                    d7:44:17:ab:8e:52:c0:17:8f:45:32:36:6c:97:24:
                    eb:e5:cb:60:d6:2e:cb:0b:1b:2a:11:f2:c8:41:ec:
                    85:9e:17:b2:40:f5:21:18:8a:70:51:c7:8d:c2:6b:
                    66:f2:e2:80:88:9c:1d:ee:22:0c:c7:19:3c:3b:e4:
                    ac:8d:9b:40:65:8b:d5:b4:17:a0:57:98:53:90:2e:
                    67:98:ff:82:56:f4:4d:d5:ca:53:98:f1:da:6e:0f:
                    7f:ef:d9:42:ef:e4:e1:9a:42:c8:9f:55:b9:fc:62:
                    ae:f6:53:d4:24:b3:ef:0c:32:74:e2:c6:86:e4:b9:
                    f6:67:ff:80:ba:56:6f:94:5a:40:72:32:1e:5a:7c:
                    08:ef:ec:db:12:69:d4:fb:dd:d6:38:74:bb:5d:3f:
                    f4:07:09:9a:8c:33:fc:93:90:95:b4:9c:ff:a6:59:
                    10:a3:e6:7b:df:22:51:36:76:7f:b3:5a:84:b1:9f:
                    22:ee:39:d0:5d:43:fb:0c:61:4f:73:19:c8:ed:b5:
                    88:84:33
                Exponent: 65537 (0x10001)
        X509v3 extensions:
            X509v3 Basic Constraints: 
                CA:FALSE
            Netscape Comment: 
                OpenSSL Generated Certificate
            X509v3 Subject Key Identifier: 
                A1:5C:FC:87:CD:0A:5D:81:F4:33:7C:5F:E0:0F:4F:64:80:30:83:47
            X509v3 Authority Key Identifier: 
                keyid:56:C0:DB:E5:85:41:9A:BE:3E:E9:AC:D2:44:27:58:0E:41:4F:11:8E

    Signature Algorithm: sha256WithRSAEncryption
         b0:43:78:13:2d:7e:c8:db:4d:41:94:93:1e:5c:bd:b2:ac:e2:
         fa:3a:6a:a5:6e:cc:68:3b:e9:4a:a6:bc:fa:20:f9:41:d5:dc:
         91:ad:cb:b2:c4:2c:94:2c:4b:7c:e6:5f:ae:5a:55:e8:3f:aa:
         ba:11:1b:79:26:70:5b:76:9e:b9:f1:73:78:a8:f2:2a:42:46:
         77:b2:b5:49:fc:7c:04:11:bc:af:0e:18:ca:54:97:6c:84:00:
         01:64:7f:d6:07:5e:a3:86:0b:fa:40:b8:e6:60:a4:21:e5:6d:
         f1:54:e6:cf:80:ce:9a:8c:b0:ca:47:c6:ba:51:35:c0:b1:b1:
         4e:d1:06:22:30:16:67:86:ba:fe:f9:01:21:45:04:fb:11:32:
         3b:7f:46:17:9f:5a:a4:ef:bc:84:59:84:2a:a2:e2:3b:7f:2f:
         aa:27:b0:5d:ec:99:03:2a:bd:75:6e:13:78:e4:87:a0:76:ae:
         fc:a7:44:e5:71:54:9e:c7:60:81:34:e3:7c:a4:54:24:3a:13:
         bc:ae:0a:55:38:86:6d:2b:c5:f7:ad:00:ea:12:62:27:fc:fb:
         ab:19:85:bd:d9:91:e9:fd:dc:bd:37:bd:29:2a:f3:f3:18:a9:
         02:c8:db:bc:fb:5f:bf:cd:b1:87:51:3f:70:a9:83:8b:73:01:
         ed:76:90:0f:d2:17:43:5b:7d:b9:01:69:b2:be:e8:18:6d:83:
         e3:61:cb:ad:a5:97:fb:55:dd:3d:c7:bd:28:99:a7:18:4c:58:
         3a:f7:3a:15:ee:52:a5:99:f0:57:22:77:1c:a5:74:12:ae:ff:
         85:85:45:18:d3:30:f6:b1:9f:e9:54:e8:28:91:4d:87:0c:74:
         95:33:b1:dd:c4:e4:df:7a:21:de:cd:ad:94:5c:fc:30:94:f6:
         92:17:4b:34:1e:e9:b6:ce:96:08:26:b6:e9:0b:db:d8:82:7f:
         7e:32:e0:e6:4f:fd:27:85:c5:4d:92:1d:2c:ee:1a:26:0d:c4:
         fc:f7:75:fe:d9:ef:53:f1:f0:21:9e:67:7e:e9:4c:fb:0e:b3:
         ba:a5:81:fe:12:84:38:e5:d9:6e:e7:d0:54:32:db:4c:d0:17:
         58:51:bc:df:4d:ce:e5:e0:aa:cd:63:6d:b3:16:d6:9e:e9:99:
         51:d1:db:5c:05:22:6a:ad:b5:a7:2e:df:b5:12:f7:91:bb:17:
         bb:75:25:8e:48:7d:06:7d:e1:f9:7a:b8:39:f0:04:0c:e8:6b:
         1b:91:0a:fd:80:b0:02:43:28:cc:69:b6:0a:b5:52:64:24:1c:
         a0:bc:70:69:7e:2f:2d:84:81:cf:ed:32:f5:08:ca:27:f8:57:
         a5:67:1a:6d:37:8c:50:8f
-----BEGIN CERTIFICATE-----
MIIFSjCCAzKgAwIBAgIEEjRWgDANBgkqhkiG9w0BAQsFADAnMSUwIwYDVQQDDBxT
UkszX3NoYTI1Nl80MDk2XzY1NTM3X3YzX2NhMB4XDTE4MDQyMzE5NDQ1MVoXDTI4
MDQyMDE5NDQ1MVowKjEoMCYGA1UEAwwfSU1HM18xX3NoYTI1Nl80MDk2XzY1NTM3
X3YzX3VzcjCCAiIwDQYJKoZIhvcNAQEBBQADggIPADCCAgoCggIBANImT/FXTH58
5zwbl+QnSe+gc+Jtxn1ybb8g0Gl0X2fbdlkItyRlK5rBLy73bH1wU77svMLq7AYd
eEDH0u1ksD4GH+bZF+h2+/Cd4DfwVLlazis+Kg3bJwwMN/fi8T7tSsTvvff8jjS2
yCw0jHCUlqmpanPOvI1hbMYkX9F76U2R2Nvx+JuyM23/cbFUnhWUAK/XESaA/4IT
FI+EvyNX8rdruphdZ8nIh+q+bYVvwITM5Wx1XR9YqZQPvYMWhhx7IRU4bu7j0tWV
PdnZJ729krvIRU8lbOGWk9+hiELTFDAsNk//Z1qGFUDO+sqgfuXSl0GQHvV5z2A/
mujwMAPZBkW952sECN7AVnUeqWsKayWKFMPboFnmWLCBJLHfMWkOddNp9Mj6vd4I
SumH4SUZKls+unCqgbCicFXX10QXq45SwBePRTI2bJck6+XLYNYuywsbKhHyyEHs
hZ4XskD1IRiKcFHHjcJrZvLigIicHe4iDMcZPDvkrI2bQGWL1bQXoFeYU5AuZ5j/
glb0TdXKU5jx2m4Pf+/ZQu/k4ZpCyJ9VufxirvZT1CSz7wwydOLGhuS59mf/gLpW
b5RaQHIyHlp8CO/s2xJp1Pvd1jh0u10/9AcJmowz/JOQlbSc/6ZZEKPme98iUTZ2
f7NahLGfIu450F1D+wxhT3MZyO21iIQzAgMBAAGjezB5MAkGA1UdEwQCMAAwLAYJ
YIZIAYb4QgENBB8WHU9wZW5TU0wgR2VuZXJhdGVkIENlcnRpZmljYXRlMB0GA1Ud
DgQWBBShXPyHzQpdgfQzfF/gD09kgDCDRzAfBgNVHSMEGDAWgBRWwNvlhUGavj7p
rNJEJ1gOQU8RjjANBgkqhkiG9w0BAQsFAAOCAgEAsEN4Ey1+yNtNQZSTHly9sqzi
+jpqpW7MaDvpSqa8+iD5QdXcka3LssQslCxLfOZfrlpV6D+quhEbeSZwW3aeufFz
eKjyKkJGd7K1Sfx8BBG8rw4YylSXbIQAAWR/1gdeo4YL+kC45mCkIeVt8VTmz4DO
moywykfGulE1wLGxTtEGIjAWZ4a6/vkBIUUE+xEyO39GF59apO+8hFmEKqLiO38v
qiewXeyZAyq9dW4TeOSHoHau/KdE5XFUnsdggTTjfKRUJDoTvK4KVTiGbSvF960A
6hJiJ/z7qxmFvdmR6f3cvTe9KSrz8xipAsjbvPtfv82xh1E/cKmDi3MB7XaQD9IX
Q1t9uQFpsr7oGG2D42HLraWX+1XdPce9KJmnGExYOvc6Fe5SpZnwVyJ3HKV0Eq7/
hYVFGNMw9rGf6VToKJFNhwx0lTOx3cTk33oh3s2tlFz8MJT2khdLNB7pts6WCCa2
6Qvb2IJ/fjLg5k/9J4XFTZIdLO4aJg3E/Pd1/tnvU/HwIZ5nfulM+w6zuqWB/hKE
OOXZbufQVDLbTNAXWFG8303O5eCqzWNtsxbWnumZUdHbXAUiaq21py7ftRL3kbsX
u3Uljkh9Bn3h+Xq4OfAEDOhrG5EK/YCwAkMozGm2CrVSZCQcoLxwaX4vLYSBz+0y
9QjKJ/hXpWcabTeMUI8=
-----END CERTIFICATE-----
