Certificate:
    Data:
        Version: 3 (0x2)
        Serial Number: 305419897 (0x12345679)
    Signature Algorithm: sha256WithRSAEncryption
        Issuer: CN=SRK1_sha256_4096_65537_v3_ca
        Validity
            Not Before: Apr 23 19:44:47 2018 GMT
            Not After : Apr 20 19:44:47 2028 GMT
        Subject: CN=CSF1_1_sha256_4096_65537_v3_usr
        Subject Public Key Info:
            Public Key Algorithm: rsaEncryption
                Public-Key: (4096 bit)
                Modulus:
                    00:9f:73:8f:b4:13:91:9b:e6:c5:e2:46:a8:d7:55:
                    54:3f:72:2f:b1:ce:7e:36:5f:bd:35:60:5d:5f:76:
                    59:98:2d:2d:da:0a:11:78:a3:58:19:eb:71:f5:b8:
                    7b:6b:af:86:76:3f:6e:8a:74:4a:42:e0:cc:be:47:
                    8f:96:af:df:c3:04:53:20:39:1b:3b:76:61:ee:23:
                    96:15:79:c7:f1:aa:23:bd:0b:03:f1:3d:07:34:ab:
                    39:88:da:de:c5:90:c2:09:44:36:c7:e9:4c:02:5c:
                    9a:9f:5b:c8:4a:cd:cf:2d:02:03:7d:1b:80:f8:35:
                    ee:a4:6d:68:78:b6:b9:6a:c9:bc:12:74:ba:6e:f0:
                    ef:ee:7a:ab:b9:b3:cb:fa:95:9b:9d:21:c9:3c:4b:
                    53:70:3c:68:c8:7b:fa:1f:5f:c1:8d:b0:91:9a:a9:
                    00:dc:a4:73:bd:1a:d2:d1:d1:6f:ef:76:b6:bd:d6:
                    67:a9:9a:86:36:5a:3d:75:39:a7:f8:81:91:17:4b:
                    5d:80:1b:5a:f2:c0:c1:52:9f:02:b6:10:0e:31:41:
                    f3:3d:58:11:57:69:11:96:28:fb:8c:de:26:c8:6a:
                    01:4a:1f:d9:9f:4a:fd:e2:36:f8:2d:11:26:64:4c:
                    d2:a3:c5:95:a0:0d:bb:c2:2d:0e:cb:2f:17:29:81:
                    c0:85:1f:25:b4:0c:b8:ad:a0:58:ba:f4:0f:2f:c1:
                    d2:e4:ae:83:7d:cc:4d:88:b4:8d:e4:53:93:09:ae:
                    41:12:ae:ea:7a:d3:74:e7:5e:22:3a:4d:12:1c:f7:
                    ab:79:31:fc:43:73:c7:06:25:52:69:2f:a5:d8:40:
                    48:5d:e5:2a:eb:77:30:38:d0:64:ac:b2:46:de:86:
                    c0:aa:0f:8b:16:51:f1:8f:e7:61:44:6a:ae:ca:7c:
                    ef:d3:16:0d:d0:d1:52:c7:0e:35:9d:a9:20:6a:d9:
                    f1:bb:c4:d9:b4:f3:68:f9:95:24:a7:21:5b:d4:33:
                    6f:05:0d:94:65:d3:01:3e:f3:59:4a:19:3c:fc:f3:
                    7a:39:74:d7:2f:d7:10:6f:f5:dd:e0:e3:09:00:bc:
                    5c:71:ed:63:40:98:74:c7:98:5f:ed:13:51:6b:25:
                    26:50:94:64:1d:33:a0:f6:f7:85:e2:f6:36:c5:7c:
                    d3:e0:49:5d:91:ba:ff:1f:1d:e2:df:ff:5a:22:44:
                    62:88:6e:6b:6a:e1:9b:00:6e:b3:f2:cf:f3:36:51:
                    28:bb:62:32:e1:6e:1d:75:b1:1e:9e:08:26:50:37:
                    74:17:8e:f1:5f:23:4b:6f:53:8d:3e:c3:84:41:6e:
                    86:4f:c2:f1:4c:5f:26:54:92:ec:bb:10:27:c8:4e:
                    5e:2b:2b
                Exponent: 65537 (0x10001)
        X509v3 extensions:
            X509v3 Basic Constraints: 
                CA:FALSE
            Netscape Comment: 
                OpenSSL Generated Certificate
            X509v3 Subject Key Identifier: 
                63:58:FC:14:89:D9:86:D3:E5:42:46:0D:EE:14:71:A9:C0:14:5A:67
            X509v3 Authority Key Identifier: 
                keyid:10:D7:87:5C:CC:4A:FC:DF:23:D1:CB:90:C6:01:35:D3:E9:B1:8F:DE

    Signature Algorithm: sha256WithRSAEncryption
         8f:96:9f:43:a5:60:03:34:45:9a:16:d0:c4:cb:e8:c2:a8:dd:
         b0:c2:35:87:5a:95:9a:ac:bc:cc:20:bb:bf:ec:ab:ee:46:5e:
         17:d8:39:da:65:0b:f8:eb:60:7e:e7:c6:ea:a8:a6:e6:ff:c1:
         b7:63:0e:07:81:48:0a:e4:e3:b5:31:0b:da:be:5f:ad:c4:bb:
         d0:c2:ea:0d:6f:5f:39:45:d3:78:0c:53:cc:67:1c:65:ba:46:
         2b:36:51:d8:35:87:3a:65:d7:f9:d7:43:b4:f4:81:a7:21:d3:
         ab:6d:79:e9:d1:ea:b9:75:5b:7a:fa:6d:16:63:e7:b5:25:ee:
         a8:05:02:72:e4:b1:cf:47:44:86:7e:85:f6:54:ee:ef:b5:d9:
         0f:5c:44:c9:d8:cc:d9:30:13:d3:10:fd:6b:9d:ae:06:69:5c:
         bf:fb:18:78:ad:49:a5:1f:54:1a:39:05:e6:37:29:14:07:27:
         a9:ac:96:1f:f7:b6:4e:33:0a:18:e3:3d:4d:8b:8a:90:ce:36:
         5a:fe:46:0d:5e:38:50:a7:ad:c1:8f:bc:6a:7f:ab:9d:a3:a1:
         b0:ee:2e:e1:cc:ae:e4:54:42:bf:03:6f:c6:1d:1a:bf:1b:c8:
         bd:a3:82:4c:61:d5:c2:3f:e5:b7:bb:aa:36:8e:4f:29:46:4f:
         87:c9:12:30:45:15:be:de:b3:b4:cd:e4:8b:a4:00:45:f2:4f:
         bc:ad:0b:5c:f1:e0:e8:16:92:f1:07:6b:2b:9e:ee:1b:ee:df:
         7c:d1:50:93:a2:13:52:25:49:eb:92:b6:92:01:d3:6d:8a:72:
         c3:3f:e0:34:bc:82:69:6d:fd:bd:df:ff:0c:27:a2:f9:ca:37:
         08:ee:8c:ec:1f:74:a8:b4:24:06:20:02:b0:4b:8f:23:60:94:
         9d:03:77:11:10:52:fc:f8:01:b5:77:4e:43:aa:d6:ef:61:8c:
         2f:9e:5e:cb:68:55:08:10:b0:16:84:38:74:40:8b:97:12:57:
         a1:35:e7:b1:3d:66:e5:ad:10:db:53:8e:d3:cd:1c:5b:a8:25:
         b1:42:0b:37:e7:c2:55:20:29:a3:72:35:93:f3:02:4e:52:bf:
         6c:6b:27:75:30:52:4c:c2:f7:c6:72:a9:c4:90:02:5a:4f:68:
         3a:0e:f3:77:b1:5e:cf:79:0f:b1:90:f8:78:05:70:e8:69:45:
         c6:d0:50:f1:12:c9:27:b7:75:51:96:09:02:e6:81:9e:ed:90:
         95:91:87:00:02:0c:3d:35:ea:54:2b:bf:78:06:27:7f:28:68:
         78:e0:a8:04:3a:b5:34:27:14:75:48:e7:65:d0:26:a7:5e:64:
         d5:af:02:4c:20:b0:27:16
-----BEGIN CERTIFICATE-----
MIIFSjCCAzKgAwIBAgIEEjRWeTANBgkqhkiG9w0BAQsFADAnMSUwIwYDVQQDDBxT
UksxX3NoYTI1Nl80MDk2XzY1NTM3X3YzX2NhMB4XDTE4MDQyMzE5NDQ0N1oXDTI4
MDQyMDE5NDQ0N1owKjEoMCYGA1UEAwwfQ1NGMV8xX3NoYTI1Nl80MDk2XzY1NTM3
X3YzX3VzcjCCAiIwDQYJKoZIhvcNAQEBBQADggIPADCCAgoCggIBAJ9zj7QTkZvm
xeJGqNdVVD9yL7HOfjZfvTVgXV92WZgtLdoKEXijWBnrcfW4e2uvhnY/bop0SkLg
zL5Hj5av38MEUyA5Gzt2Ye4jlhV5x/GqI70LA/E9BzSrOYja3sWQwglENsfpTAJc
mp9byErNzy0CA30bgPg17qRtaHi2uWrJvBJ0um7w7+56q7mzy/qVm50hyTxLU3A8
aMh7+h9fwY2wkZqpANykc70a0tHRb+92tr3WZ6mahjZaPXU5p/iBkRdLXYAbWvLA
wVKfArYQDjFB8z1YEVdpEZYo+4zeJshqAUof2Z9K/eI2+C0RJmRM0qPFlaANu8It
DssvFymBwIUfJbQMuK2gWLr0Dy/B0uSug33MTYi0jeRTkwmuQRKu6nrTdOdeIjpN
Ehz3q3kx/ENzxwYlUmkvpdhASF3lKut3MDjQZKyyRt6GwKoPixZR8Y/nYURqrsp8
79MWDdDRUscONZ2pIGrZ8bvE2bTzaPmVJKchW9QzbwUNlGXTAT7zWUoZPPzzejl0
1y/XEG/13eDjCQC8XHHtY0CYdMeYX+0TUWslJlCUZB0zoPb3heL2NsV80+BJXZG6
/x8d4t//WiJEYohua2rhmwBus/LP8zZRKLtiMuFuHXWxHp4IJlA3dBeO8V8jS29T
jT7DhEFuhk/C8UxfJlSS7LsQJ8hOXisrAgMBAAGjezB5MAkGA1UdEwQCMAAwLAYJ
YIZIAYb4QgENBB8WHU9wZW5TU0wgR2VuZXJhdGVkIENlcnRpZmljYXRlMB0GA1Ud
DgQWBBRjWPwUidmG0+VCRg3uFHGpwBRaZzAfBgNVHSMEGDAWgBQQ14dczEr83yPR
y5DGATXT6bGP3jANBgkqhkiG9w0BAQsFAAOCAgEAj5afQ6VgAzRFmhbQxMvowqjd
sMI1h1qVmqy8zCC7v+yr7kZeF9g52mUL+OtgfufG6qim5v/Bt2MOB4FICuTjtTEL
2r5frcS70MLqDW9fOUXTeAxTzGccZbpGKzZR2DWHOmXX+ddDtPSBpyHTq2156dHq
uXVbevptFmPntSXuqAUCcuSxz0dEhn6F9lTu77XZD1xEydjM2TAT0xD9a52uBmlc
v/sYeK1JpR9UGjkF5jcpFAcnqayWH/e2TjMKGOM9TYuKkM42Wv5GDV44UKetwY+8
an+rnaOhsO4u4cyu5FRCvwNvxh0avxvIvaOCTGHVwj/lt7uqNo5PKUZPh8kSMEUV
vt6ztM3ki6QARfJPvK0LXPHg6BaS8QdrK57uG+7ffNFQk6ITUiVJ65K2kgHTbYpy
wz/gNLyCaW39vd//DCei+co3CO6M7B90qLQkBiACsEuPI2CUnQN3ERBS/PgBtXdO
Q6rW72GML55ey2hVCBCwFoQ4dECLlxJXoTXnsT1m5a0Q21OO080cW6glsUILN+fC
VSApo3I1k/MCTlK/bGsndTBSTML3xnKpxJACWk9oOg7zd7Fez3kPsZD4eAVw6GlF
xtBQ8RLJJ7d1UZYJAuaBnu2QlZGHAAIMPTXqVCu/eAYnfyhoeOCoBDq1NCcUdUjn
ZdAmp15k1a8CTCCwJxY=
-----END CERTIFICATE-----
