Certificate:
    Data:
        Version: 3 (0x2)
        Serial Number: 305419896 (0x12345678)
    Signature Algorithm: sha256WithRSAEncryption
        Issuer: CN=CA1_sha256_4096_65537_v3_ca
        Validity
            Not Before: Apr 23 19:44:46 2018 GMT
            Not After : Apr 20 19:44:46 2028 GMT
        Subject: CN=SRK1_sha256_4096_65537_v3_ca
        Subject Public Key Info:
            Public Key Algorithm: rsaEncryption
                Public-Key: (4096 bit)
                Modulus:
                    00:cf:81:e2:c5:40:db:51:83:2f:ac:f5:ab:7e:fd:
                    31:95:b9:bd:f7:f9:69:b8:58:cf:a8:b2:c8:ee:35:
                    4d:14:2d:b5:a6:cd:01:d8:0c:b7:73:bb:21:43:74:
                    87:fa:df:7f:ba:07:c0:e4:5d:06:b6:a2:7c:3a:41:
                    5f:9b:52:8b:c5:e3:d8:f7:08:6c:01:e1:b8:fc:c3:
                    a5:12:88:c3:38:b9:cb:14:46:6f:5c:a0:44:c0:37:
                    91:d4:f2:f6:8c:fe:e3:10:88:62:59:10:90:1e:ca:
                    d0:bd:ff:bb:e0:7c:62:70:89:b3:fb:23:d8:c8:98:
                    79:07:f2:db:20:08:7d:0f:46:64:d4:35:d9:b8:94:
                    66:87:d7:03:d0:e2:23:8a:9f:39:fc:98:a0:79:24:
                    2f:c0:c0:a1:c9:c1:40:ca:08:2e:b0:ca:70:a0:63:
                    af:7f:08:9c:d2:49:c4:ce:91:8b:64:0b:25:25:b4:
                    bc:e4:8e:a8:cd:3c:e8:29:93:ac:4c:a2:e7:2c:20:
                    cb:ce:f4:cb:7f:59:6a:a8:f4:e7:6d:07:85:71:34:
                    c7:7e:c1:42:d4:24:d9:46:df:5c:98:f8:aa:5d:82:
                    47:86:f5:c3:5d:15:fe:65:48:44:f4:ad:57:07:37:
                    e3:87:0a:c3:18:f7:7b:a7:8e:a9:5a:bf:9a:19:01:
                    1e:0a:e6:66:ed:4c:9d:dd:a4:e2:d7:28:76:c1:2b:
                    4a:0e:8b:bd:36:40:75:bd:27:38:31:b7:b9:ce:2f:
                    7f:0a:d1:26:7f:df:9a:c6:4d:4c:75:c2:3f:5c:73:
                    13:13:a3:89:4c:53:d4:2f:03:1d:3d:c4:60:74:a3:
                    5a:56:b3:62:97:00:dc:3a:d5:b1:96:c7:8d:a8:74:
                    42:48:54:c0:03:27:ac:0f:46:29:10:f9:42:c9:7b:
                    d6:83:d6:65:92:30:bc:6c:5a:6e:6f:99:da:8a:07:
                    49:63:30:6a:bd:be:0b:5d:2f:06:16:3e:d8:c6:cd:
                    81:8d:b4:6e:60:45:d1:90:bb:d3:dd:dd:b8:da:26:
                    53:2f:9d:00:a1:fc:ae:76:ab:0c:cc:4d:4c:3d:e0:
                    c7:ce:e0:4d:9d:74:39:8e:a3:65:17:fd:d4:57:3a:
                    dd:1f:07:fb:1c:98:89:a2:f0:74:35:71:cd:c8:e4:
                    99:10:c9:35:77:68:03:3f:9f:23:e6:f7:95:e5:2e:
                    fc:35:a6:cd:d8:ff:00:89:d5:c6:a0:2e:8b:ec:de:
                    fa:60:31:ac:0d:b8:b6:bc:84:31:d4:09:fc:b8:20:
                    ce:ad:0b:0f:3f:98:e6:15:c8:2f:e5:f5:ba:7c:15:
                    e6:d5:f1:94:2e:a8:0c:60:e0:8a:c6:63:26:ff:d5:
                    bd:86:99
                Exponent: 65537 (0x10001)
        X509v3 extensions:
            X509v3 Subject Key Identifier: 
                10:D7:87:5C:CC:4A:FC:DF:23:D1:CB:90:C6:01:35:D3:E9:B1:8F:DE
            X509v3 Authority Key Identifier: 
                keyid:41:04:7C:3A:0C:AD:54:08:9E:DF:82:8E:8A:0D:0C:D0:D2:E7:F5:8D
                DirName:/CN=CA1_sha256_4096_65537_v3_ca
                serial:95:B3:25:06:C6:38:57:0E

            X509v3 Basic Constraints: critical
                CA:TRUE
            X509v3 Key Usage: 
                Certificate Sign
    Signature Algorithm: sha256WithRSAEncryption
         9b:24:3e:bd:17:47:1d:f9:3b:c3:6c:05:7a:94:37:97:0e:73:
         8e:17:af:51:b6:81:99:ef:78:79:d0:98:67:53:bd:26:91:f3:
         68:0b:83:85:81:4c:63:15:64:44:c1:cb:00:5d:0c:48:c7:a9:
         9c:c8:59:46:82:b8:b8:8d:66:5e:51:7f:85:3c:75:2c:1b:e7:
         ca:6e:67:9b:38:bb:d7:ab:89:47:c5:50:87:bf:4d:e5:46:37:
         d8:44:70:93:00:35:df:0a:1e:2e:c4:ca:c8:4f:58:ff:f9:4a:
         92:91:0b:93:56:b9:be:f7:32:9a:82:37:c4:df:0f:b7:2d:bb:
         d0:85:01:ed:56:e7:7b:1d:58:8b:b8:80:79:f0:5d:1b:83:b6:
         20:6b:fe:27:78:e2:89:19:37:27:2b:a2:cc:8c:a3:25:e6:39:
         42:0c:12:59:ce:07:9c:c6:8d:49:ce:e8:36:ba:93:ea:e3:ad:
         70:f0:06:4f:9f:3c:ea:89:48:f8:08:65:2d:fa:c3:80:53:b6:
         b1:60:b9:14:2e:b4:01:1c:75:ba:b8:90:fc:be:39:c5:3c:95:
         f1:d8:08:8a:2e:af:45:3d:9e:30:9c:89:96:77:bb:8d:b0:a1:
         9f:69:d3:95:b4:59:50:55:fd:ca:ef:ba:0d:d9:fa:50:73:fc:
         d8:f1:68:5c:d9:85:5a:21:96:a2:78:f1:00:6d:ac:d5:99:22:
         4e:db:ef:9a:e4:05:f1:70:f4:fe:ef:0c:35:fe:b6:d6:23:58:
         1f:5e:46:19:9b:72:e2:08:84:12:d3:5c:45:53:b4:1b:ec:72:
         e7:20:6d:b0:68:d8:33:b3:d9:75:f4:f8:93:63:b9:e8:45:f4:
         d5:f5:d8:62:13:0b:f6:15:51:17:be:c7:8e:68:1d:e6:d1:cd:
         59:4f:a6:34:6a:65:8b:b0:dd:31:46:fa:f4:2d:7b:be:b6:ed:
         ec:fb:07:ec:9a:16:b5:9e:46:10:94:db:85:36:c9:61:8a:42:
         90:51:ae:de:13:5b:f4:18:ee:f0:52:96:94:4e:91:22:47:34:
         a2:38:ac:c4:3b:96:8a:18:fc:4d:1e:d5:41:66:c2:63:9d:ff:
         9c:6a:5c:e9:3d:f3:c0:eb:e8:e1:18:7f:fc:c2:4b:85:97:9c:
         6e:e4:2f:58:84:f3:aa:d8:74:cc:c7:3e:7c:81:7f:13:2a:fa:
         4e:88:50:8d:ba:70:f4:38:d1:cd:c0:e9:b5:51:fa:d2:23:04:
         c2:02:68:3a:4c:67:81:b1:94:07:52:ec:24:dd:13:af:99:f9:
         3d:5a:c2:6a:b7:c4:a5:b0:d1:5c:aa:c3:b3:ed:55:d1:76:ed:
         65:f8:a8:d5:d2:77:65:3b
-----BEGIN CERTIFICATE-----
MIIFZDCCA0ygAwIBAgIEEjRWeDANBgkqhkiG9w0BAQsFADAmMSQwIgYDVQQDFBtD
QTFfc2hhMjU2XzQwOTZfNjU1MzdfdjNfY2EwHhcNMTgwNDIzMTk0NDQ2WhcNMjgw
NDIwMTk0NDQ2WjAnMSUwIwYDVQQDDBxTUksxX3NoYTI1Nl80MDk2XzY1NTM3X3Yz
X2NhMIICIjANBgkqhkiG9w0BAQEFAAOCAg8AMIICCgKCAgEAz4HixUDbUYMvrPWr
fv0xlbm99/lpuFjPqLLI7jVNFC21ps0B2Ay3c7shQ3SH+t9/ugfA5F0GtqJ8OkFf
m1KLxePY9whsAeG4/MOlEojDOLnLFEZvXKBEwDeR1PL2jP7jEIhiWRCQHsrQvf+7
4HxicImz+yPYyJh5B/LbIAh9D0Zk1DXZuJRmh9cD0OIjip85/JigeSQvwMChycFA
yggusMpwoGOvfwic0knEzpGLZAslJbS85I6ozTzoKZOsTKLnLCDLzvTLf1lqqPTn
bQeFcTTHfsFC1CTZRt9cmPiqXYJHhvXDXRX+ZUhE9K1XBzfjhwrDGPd7p46pWr+a
GQEeCuZm7Uyd3aTi1yh2wStKDou9NkB1vSc4Mbe5zi9/CtEmf9+axk1MdcI/XHMT
E6OJTFPULwMdPcRgdKNaVrNilwDcOtWxlseNqHRCSFTAAyesD0YpEPlCyXvWg9Zl
kjC8bFpub5naigdJYzBqvb4LXS8GFj7Yxs2BjbRuYEXRkLvT3d242iZTL50Aofyu
dqsMzE1MPeDHzuBNnXQ5jqNlF/3UVzrdHwf7HJiJovB0NXHNyOSZEMk1d2gDP58j
5veV5S78NabN2P8AidXGoC6L7N76YDGsDbi2vIQx1An8uCDOrQsPP5jmFcgv5fW6
fBXm1fGULqgMYOCKxmMm/9W9hpkCAwEAAaOBmDCBlTAdBgNVHQ4EFgQUENeHXMxK
/N8j0cuQxgE10+mxj94wVgYDVR0jBE8wTYAUQQR8OgytVAie34KOig0M0NLn9Y2h
KqQoMCYxJDAiBgNVBAMUG0NBMV9zaGEyNTZfNDA5Nl82NTUzN192M19jYYIJAJWz
JQbGOFcOMA8GA1UdEwEB/wQFMAMBAf8wCwYDVR0PBAQDAgIEMA0GCSqGSIb3DQEB
CwUAA4ICAQCbJD69F0cd+TvDbAV6lDeXDnOOF69RtoGZ73h50JhnU70mkfNoC4OF
gUxjFWREwcsAXQxIx6mcyFlGgri4jWZeUX+FPHUsG+fKbmebOLvXq4lHxVCHv03l
RjfYRHCTADXfCh4uxMrIT1j/+UqSkQuTVrm+9zKagjfE3w+3LbvQhQHtVud7HViL
uIB58F0bg7Yga/4neOKJGTcnK6LMjKMl5jlCDBJZzgecxo1Jzug2upPq461w8AZP
nzzqiUj4CGUt+sOAU7axYLkULrQBHHW6uJD8vjnFPJXx2AiKLq9FPZ4wnImWd7uN
sKGfadOVtFlQVf3K77oN2fpQc/zY8Whc2YVaIZaiePEAbazVmSJO2++a5AXxcPT+
7ww1/rbWI1gfXkYZm3LiCIQS01xFU7Qb7HLnIG2waNgzs9l19PiTY7noRfTV9dhi
Ewv2FVEXvseOaB3m0c1ZT6Y0amWLsN0xRvr0LXu+tu3s+wfsmha1nkYQlNuFNslh
ikKQUa7eE1v0GO7wUpaUTpEiRzSiOKzEO5aKGPxNHtVBZsJjnf+calzpPfPA6+jh
GH/8wkuFl5xu5C9YhPOq2HTMxz58gX8TKvpOiFCNunD0ONHNwOm1UfrSIwTCAmg6
TGeBsZQHUuwk3ROvmfk9WsJqt8SlsNFcqsOz7VXRdu1l+KjV0ndlOw==
-----END CERTIFICATE-----
