Certificate:
    Data:
        Version: 3 (0x2)
        Serial Number: 305419906 (0x12345682)
    Signature Algorithm: sha256WithRSAEncryption
        Issuer: CN=SRK4_sha256_4096_65537_v3_ca
        Validity
            Not Before: Apr 23 19:44:51 2018 GMT
            Not After : Apr 20 19:44:51 2028 GMT
        Subject: CN=CSF4_1_sha256_4096_65537_v3_usr
        Subject Public Key Info:
            Public Key Algorithm: rsaEncryption
                Public-Key: (4096 bit)
                Modulus:
                    00:d0:ed:37:57:09:fe:b1:15:e4:fe:46:d8:dc:3c:
                    34:06:1b:14:cd:d2:69:c3:e5:ec:31:65:d9:eb:27:
                    91:34:08:50:34:ab:3f:0c:5a:f4:0f:39:66:11:4c:
                    25:37:3f:73:7c:5a:c1:d4:ad:46:fe:d3:73:f2:b5:
                    2b:f9:2d:60:aa:23:ea:51:5f:e0:c4:c5:8c:75:ff:
                    5d:15:72:43:de:de:e2:cb:db:98:b4:3e:f9:31:41:
                    45:db:96:08:37:a8:38:91:6d:2e:24:f6:46:8b:91:
                    0f:49:f7:e0:df:eb:e3:67:77:48:80:05:03:1c:34:
                    89:a9:bc:38:a2:ce:6e:80:70:c4:70:81:27:eb:7b:
                    61:3a:35:fb:2b:e5:0e:20:97:12:92:93:d4:45:a1:
                    64:36:c3:64:59:76:1c:68:c4:9f:66:10:6d:a9:36:
                    ab:68:6b:a7:f4:86:30:a1:a6:85:2e:3e:68:e5:09:
                    cc:90:db:d1:c6:09:3c:76:3d:73:cd:fa:52:ae:0a:
                    b7:50:aa:8b:4e:19:33:e3:91:71:b7:77:ad:f6:0e:
                    dc:cc:e8:b4:7c:c6:e5:e3:f8:40:09:79:f5:d7:02:
                    bd:16:1d:dd:31:ca:ff:79:4b:15:8d:1b:8e:78:ea:
                    27:17:87:c1:bb:41:ba:28:da:9a:1d:a8:ab:3f:9f:
                    a2:59:40:7c:6b:8d:c7:ec:55:3d:8a:cc:25:d1:54:
                    5d:6c:c2:19:03:e2:5d:d7:73:61:b3:f8:74:d4:21:
                    67:21:6b:3d:31:2a:f4:5d:80:80:9c:12:48:bd:33:
                    b2:19:87:5b:84:b3:a7:8c:c4:e5:c1:ce:2a:2a:bf:
                    8a:3c:bd:ae:99:0a:3b:db:90:b2:3c:6e:e8:c3:0a:
                    68:22:41:da:13:a0:ac:61:2d:dd:a6:55:f3:9b:bd:
                    86:5a:31:32:df:d1:69:ee:f3:e4:fa:b9:d8:2b:41:
                    65:c3:c9:b8:fa:e6:fb:e7:66:58:e2:68:52:6a:1f:
                    30:31:e2:19:4a:23:a3:ab:3f:c5:0f:52:4d:25:5d:
                    e5:66:93:e2:b9:65:98:49:ed:21:0d:77:8f:6e:ce:
                    75:45:50:27:67:c2:7f:ee:7c:ac:7d:4c:e9:c3:99:
                    82:63:b7:50:ec:1c:1a:9f:7d:d5:64:11:68:26:74:
                    08:d5:c5:1a:ef:18:91:ff:0e:ed:6e:7a:6f:ec:69:
                    74:41:ac:c1:d7:44:20:96:a0:c6:b1:57:c7:62:e3:
                    04:d5:10:77:be:7b:28:b1:20:0a:46:e3:be:a2:cd:
                    7e:30:0d:0d:2a:f7:9d:4c:99:75:64:4b:a5:c8:66:
                    27:8d:2f:91:d1:13:6d:81:04:2e:44:2f:c4:1a:7d:
                    a3:8d:73
                Exponent: 65537 (0x10001)
        X509v3 extensions:
            X509v3 Basic Constraints: 
                CA:FALSE
            Netscape Comment: 
                OpenSSL Generated Certificate
            X509v3 Subject Key Identifier: 
                12:CE:50:C8:F7:A9:1F:FD:68:45:E9:01:F6:79:BA:23:8C:AC:DE:49
            X509v3 Authority Key Identifier: 
                keyid:7F:F5:8C:BE:96:44:A0:1D:7F:B0:4C:94:AB:0D:49:8D:E7:D5:34:AB

    Signature Algorithm: sha256WithRSAEncryption
         21:89:13:65:57:7f:31:f6:6d:fc:f0:a4:ad:39:e2:8b:e0:35:
         7a:cd:ec:db:e4:a3:59:db:0f:ba:bd:8d:b4:eb:bf:a1:27:b0:
         9b:72:37:2f:2f:0f:22:e2:db:b9:78:a6:99:bf:2f:b4:31:f3:
         a5:f6:64:c5:45:86:45:13:e7:fa:0d:01:e9:1a:a0:43:2a:4d:
         ca:ea:20:e8:9d:57:6e:8d:2a:4b:8d:68:15:d8:5e:6a:26:77:
         5c:cf:c1:de:a5:c6:46:11:54:53:de:40:da:3a:39:2d:bb:6f:
         b2:1b:fa:af:2e:92:07:b2:6d:df:3c:7a:5f:d3:ed:f2:3f:59:
         85:05:de:1a:54:6a:fc:ba:1e:4d:be:e6:cb:1b:9c:16:50:6e:
         aa:1c:28:71:06:da:99:7a:ee:e5:01:1c:46:4a:7b:c9:10:58:
         5b:02:47:01:8b:a1:f9:b0:d1:2b:7c:fd:b9:1f:81:c4:47:f3:
         d0:b7:e8:0c:fa:ee:4a:35:c2:4e:fe:6c:17:7e:5b:41:89:77:
         33:f3:85:ac:18:2b:14:27:63:52:be:0e:f7:c9:d0:41:37:f0:
         79:02:ca:da:bb:21:ec:cc:4d:23:b3:61:97:5d:98:7d:15:0b:
         22:51:a6:28:63:9a:b0:61:ad:72:67:5f:c2:1a:35:4d:10:27:
         c8:f1:93:57:45:8c:36:4c:7a:a1:91:5b:d9:9f:69:c5:a1:8c:
         19:c8:8f:53:da:12:d5:84:82:a8:8f:c8:5f:38:a2:43:1b:e1:
         ee:0a:25:0f:7e:ea:01:a1:a0:53:de:5a:f2:f3:3b:ad:e8:72:
         7d:32:b3:87:b2:66:6f:0d:ec:6d:f2:68:67:30:be:e6:21:70:
         ed:f0:37:aa:b1:48:87:6f:8e:93:7d:52:09:bb:9c:c1:cd:4b:
         98:cf:5e:3c:a9:83:c9:68:c4:07:df:0c:f3:9e:64:65:3c:11:
         75:23:35:eb:e8:bc:cb:66:9b:7c:5e:11:8f:56:d1:73:d9:b2:
         d3:ed:b6:44:6d:fa:ab:88:b4:39:71:a5:0d:f1:1d:de:89:dc:
         63:f9:78:be:ac:4e:7c:81:e3:e2:31:67:ac:ed:d4:22:b9:f3:
         fc:87:b9:61:9e:89:d5:02:d4:0e:23:9d:1c:81:cf:5d:0a:f3:
         6e:99:f1:64:97:4d:2b:8c:2b:23:d1:14:5c:c6:ac:25:72:63:
         13:a4:50:46:8c:ce:ba:00:69:be:a3:5c:6d:e2:df:a3:0e:18:
         a8:f1:5e:7d:3c:f8:9d:e8:a4:73:0b:49:a0:32:16:af:4d:f4:
         08:f6:dd:75:57:9a:c4:c7:10:47:8d:4f:f4:f3:5e:70:1f:32:
         37:a7:18:fd:23:bc:d7:f4
-----BEGIN CERTIFICATE-----
MIIFSjCCAzKgAwIBAgIEEjRWgjANBgkqhkiG9w0BAQsFADAnMSUwIwYDVQQDDBxT
Uks0X3NoYTI1Nl80MDk2XzY1NTM3X3YzX2NhMB4XDTE4MDQyMzE5NDQ1MVoXDTI4
MDQyMDE5NDQ1MVowKjEoMCYGA1UEAwwfQ1NGNF8xX3NoYTI1Nl80MDk2XzY1NTM3
X3YzX3VzcjCCAiIwDQYJKoZIhvcNAQEBBQADggIPADCCAgoCggIBANDtN1cJ/rEV
5P5G2Nw8NAYbFM3SacPl7DFl2esnkTQIUDSrPwxa9A85ZhFMJTc/c3xawdStRv7T
c/K1K/ktYKoj6lFf4MTFjHX/XRVyQ97e4svbmLQ++TFBRduWCDeoOJFtLiT2RouR
D0n34N/r42d3SIAFAxw0iam8OKLOboBwxHCBJ+t7YTo1+yvlDiCXEpKT1EWhZDbD
ZFl2HGjEn2YQbak2q2hrp/SGMKGmhS4+aOUJzJDb0cYJPHY9c836Uq4Kt1Cqi04Z
M+ORcbd3rfYO3MzotHzG5eP4QAl59dcCvRYd3THK/3lLFY0bjnjqJxeHwbtBuija
mh2oqz+follAfGuNx+xVPYrMJdFUXWzCGQPiXddzYbP4dNQhZyFrPTEq9F2AgJwS
SL0zshmHW4Szp4zE5cHOKiq/ijy9rpkKO9uQsjxu6MMKaCJB2hOgrGEt3aZV85u9
hloxMt/Rae7z5Pq52CtBZcPJuPrm++dmWOJoUmofMDHiGUojo6s/xQ9STSVd5WaT
4rllmEntIQ13j27OdUVQJ2fCf+58rH1M6cOZgmO3UOwcGp991WQRaCZ0CNXFGu8Y
kf8O7W56b+xpdEGswddEIJagxrFXx2LjBNUQd757KLEgCkbjvqLNfjANDSr3nUyZ
dWRLpchmJ40vkdETbYEELkQvxBp9o41zAgMBAAGjezB5MAkGA1UdEwQCMAAwLAYJ
YIZIAYb4QgENBB8WHU9wZW5TU0wgR2VuZXJhdGVkIENlcnRpZmljYXRlMB0GA1Ud
DgQWBBQSzlDI96kf/WhF6QH2ebojjKzeSTAfBgNVHSMEGDAWgBR/9Yy+lkSgHX+w
TJSrDUmN59U0qzANBgkqhkiG9w0BAQsFAAOCAgEAIYkTZVd/MfZt/PCkrTnii+A1
es3s2+SjWdsPur2NtOu/oSewm3I3Ly8PIuLbuXimmb8vtDHzpfZkxUWGRRPn+g0B
6RqgQypNyuog6J1Xbo0qS41oFdheaiZ3XM/B3qXGRhFUU95A2jo5Lbtvshv6ry6S
B7Jt3zx6X9Pt8j9ZhQXeGlRq/LoeTb7myxucFlBuqhwocQbamXru5QEcRkp7yRBY
WwJHAYuh+bDRK3z9uR+BxEfz0LfoDPruSjXCTv5sF35bQYl3M/OFrBgrFCdjUr4O
98nQQTfweQLK2rsh7MxNI7Nhl12YfRULIlGmKGOasGGtcmdfwho1TRAnyPGTV0WM
Nkx6oZFb2Z9pxaGMGciPU9oS1YSCqI/IXziiQxvh7golD37qAaGgU95a8vM7rehy
fTKzh7Jmbw3sbfJoZzC+5iFw7fA3qrFIh2+Ok31SCbucwc1LmM9ePKmDyWjEB98M
855kZTwRdSM16+i8y2abfF4Rj1bRc9my0+22RG36q4i0OXGlDfEd3oncY/l4vqxO
fIHj4jFnrO3UIrnz/Ie5YZ6J1QLUDiOdHIHPXQrzbpnxZJdNK4wrI9EUXMasJXJj
E6RQRozOugBpvqNcbeLfow4YqPFefTz4neikcwtJoDIWr030CPbddVeaxMcQR41P
9PNecB8yN6cY/SO81/Q=
-----END CERTIFICATE-----
