Certificate:
    Data:
        Version: 3 (0x2)
        Serial Number: 305419900 (0x1234567c)
    Signature Algorithm: sha256WithRSAEncryption
        Issuer: CN=SRK2_sha256_4096_65537_v3_ca
        Validity
            Not Before: Apr 23 19:44:48 2018 GMT
            Not After : Apr 20 19:44:48 2028 GMT
        Subject: CN=CSF2_1_sha256_4096_65537_v3_usr
        Subject Public Key Info:
            Public Key Algorithm: rsaEncryption
                Public-Key: (4096 bit)
                Modulus:
                    00:de:ab:e6:30:94:6b:95:23:13:60:1f:81:6b:44:
                    50:aa:55:72:c4:1d:19:88:60:f7:1e:9c:1e:c9:6c:
                    32:ec:35:1c:0b:c6:27:f7:f3:46:8a:02:57:e1:57:
                    fe:6a:45:97:65:86:8e:d1:32:38:b7:8a:51:e0:40:
                    c4:75:03:34:62:1d:29:3a:07:3b:94:13:80:e6:2e:
                    73:eb:79:af:51:f6:f2:9d:1b:d5:14:68:7c:92:f8:
                    48:bb:60:3c:85:ad:52:7f:02:d5:f0:be:72:dc:78:
                    42:f8:d6:c6:32:fd:43:a6:da:c7:81:60:a4:c3:12:
                    f2:a9:c1:c2:1f:af:92:8f:0a:6d:0e:be:a1:00:8d:
                    3b:9a:c9:e9:fa:4c:75:f5:ba:b0:7c:ac:2c:65:4a:
                    fe:7a:67:61:0a:2b:17:a0:f4:f6:50:bb:68:7d:77:
                    95:70:60:49:d5:e6:4b:ac:59:ae:83:c8:47:2e:b5:
                    9e:36:24:ad:7e:8f:14:4b:13:1d:3b:0a:c3:c9:21:
                    b7:ee:05:3e:39:d2:b9:81:cf:4a:42:2b:ed:5f:53:
                    ab:de:87:bd:62:9f:f0:82:b7:da:ce:84:e4:7d:2f:
                    63:31:69:f5:9c:ba:35:5f:5b:cc:99:19:a1:0d:4a:
                    44:2f:9b:00:62:cd:d0:9a:5d:f1:47:5b:8b:90:92:
                    2c:29:57:5c:4c:fa:e4:8f:f5:c1:ef:46:56:ec:36:
                    ac:2e:6a:15:a4:46:6c:a4:a1:c2:8f:3d:3c:df:d8:
                    2b:cb:84:31:c8:3d:8b:d8:08:a6:d8:42:d3:2e:1e:
                    ef:66:e5:84:6d:97:29:41:ee:da:bf:c7:d1:fc:3e:
                    4b:e3:e9:a9:f9:33:4a:93:59:c5:6b:47:7e:ea:e9:
                    96:b9:2b:01:27:2b:79:b3:e4:e5:61:ed:0a:34:71:
                    da:c0:d7:0c:d9:b7:34:07:66:3b:d6:b1:c2:c9:8d:
                    16:29:23:44:45:ea:8e:1d:5a:21:91:e4:36:cc:dd:
                    7b:a3:cb:19:14:e2:df:c9:fb:c8:9c:f7:3a:5a:66:
                    b1:28:ac:63:07:9f:a2:ee:cc:97:e6:93:01:32:99:
                    54:e1:3e:19:dc:3a:b2:f4:e2:28:47:ad:fc:b4:9a:
                    4f:fd:5b:83:3c:c0:c5:6d:f3:db:dd:ff:a8:f5:3f:
                    23:91:fb:f7:24:7c:b4:4d:24:55:02:88:1d:5c:3d:
                    04:b2:99:47:5c:d1:86:12:99:bb:23:f3:a4:2a:71:
                    bf:62:24:f6:4b:a5:42:16:41:3d:70:1e:ac:5d:c9:
                    22:2f:dc:4a:99:33:5d:c7:18:af:cc:27:c8:4f:e6:
                    ef:be:04:d2:79:a3:2a:20:0a:cb:de:3c:9f:67:ed:
                    00:ea:d7
                Exponent: 65537 (0x10001)
        X509v3 extensions:
            X509v3 Basic Constraints: 
                CA:FALSE
            Netscape Comment: 
                OpenSSL Generated Certificate
            X509v3 Subject Key Identifier: 
                7A:A6:17:01:D2:20:F6:02:5E:E7:B6:66:55:44:E0:BE:ED:E7:BE:27
            X509v3 Authority Key Identifier: 
                keyid:48:40:2F:FE:73:22:60:8D:FF:66:D3:F1:31:CC:E7:F3:A4:4A:A3:D7

    Signature Algorithm: sha256WithRSAEncryption
         38:dc:e5:c1:99:f3:9a:33:26:f3:1c:5f:49:10:0a:de:b3:0d:
         ff:b9:6f:3a:48:31:89:93:99:a6:b5:ee:0a:86:18:3e:f5:68:
         4e:b4:40:b6:ef:6f:75:06:d4:4a:b4:d5:26:ba:e7:0d:3c:9d:
         88:9b:1f:da:2b:1d:62:cf:85:37:25:a2:a9:a8:24:23:33:d5:
         f4:87:05:c7:9b:18:38:a3:c3:55:62:32:ae:d6:65:38:c3:0e:
         d1:c4:be:88:03:e2:85:45:6e:5c:50:17:9e:ba:8a:a6:8c:e2:
         8a:72:af:bc:f1:c7:d9:4a:1f:0d:4b:5f:9c:8c:a1:96:35:7f:
         3a:f2:32:76:77:6f:44:0a:d2:32:34:ee:66:fd:81:d3:e3:6f:
         16:9f:d3:96:dc:0b:dd:fd:b2:e9:4b:d1:69:42:d8:be:23:d4:
         b1:ae:00:fc:a1:4e:8d:2f:0b:2b:c8:16:90:8f:5d:5c:cf:dd:
         46:03:72:13:16:9b:bd:de:ea:43:b7:bf:77:ad:a5:85:e1:32:
         f5:95:c6:c6:50:3b:5f:f0:7b:8f:c6:f7:60:78:c6:f9:ec:86:
         6d:a7:3a:53:39:4b:0d:1c:2a:cc:bc:67:86:19:15:60:07:e1:
         85:f3:0e:96:57:71:32:6f:95:85:80:5d:0d:c6:ce:0a:64:41:
         55:38:bb:53:d2:42:ab:c8:49:61:08:d3:a9:cf:60:58:5d:c5:
         be:1a:07:88:b7:bc:7a:c1:86:3a:91:f0:47:a3:76:6a:97:d5:
         cf:4f:26:c0:4d:d4:7a:9b:59:9c:5a:70:f6:a0:d9:c7:62:12:
         b6:84:17:7f:ca:71:b4:16:af:05:b1:52:a0:7d:7c:71:c4:c0:
         b9:56:75:f3:52:bb:47:2f:c8:e8:2e:db:9f:ad:e5:2f:50:9e:
         9e:58:13:39:d7:0c:87:58:e0:97:26:d8:d3:ac:04:d3:8f:5d:
         e9:d2:dc:4f:c8:ea:ea:50:2b:2b:7b:1f:f9:f7:6d:96:10:24:
         4e:58:ed:27:ad:ae:54:81:8d:52:63:98:e3:3e:45:90:81:20:
         cd:a7:55:c5:22:b6:b5:43:6d:47:7f:14:c3:38:44:b6:6d:df:
         41:e0:64:42:17:4c:9d:fa:b3:a0:a0:75:97:0b:35:7d:38:d0:
         70:4e:77:92:3a:b8:2a:2e:b9:f3:90:07:92:76:d7:0e:c0:50:
         fd:32:62:a9:6e:be:77:50:9c:c7:68:c4:f0:8f:ec:b3:f0:66:
         5a:c7:59:07:c5:e4:dd:92:26:13:00:1a:73:f0:1f:63:f7:50:
         fe:33:0a:9c:f6:9d:9b:e4:af:8d:9e:51:b2:28:84:ee:21:8f:
         5a:34:a1:66:b1:63:a9:27
-----BEGIN CERTIFICATE-----
MIIFSjCCAzKgAwIBAgIEEjRWfDANBgkqhkiG9w0BAQsFADAnMSUwIwYDVQQDDBxT
UksyX3NoYTI1Nl80MDk2XzY1NTM3X3YzX2NhMB4XDTE4MDQyMzE5NDQ0OFoXDTI4
MDQyMDE5NDQ0OFowKjEoMCYGA1UEAwwfQ1NGMl8xX3NoYTI1Nl80MDk2XzY1NTM3
X3YzX3VzcjCCAiIwDQYJKoZIhvcNAQEBBQADggIPADCCAgoCggIBAN6r5jCUa5Uj
E2AfgWtEUKpVcsQdGYhg9x6cHslsMuw1HAvGJ/fzRooCV+FX/mpFl2WGjtEyOLeK
UeBAxHUDNGIdKToHO5QTgOYuc+t5r1H28p0b1RRofJL4SLtgPIWtUn8C1fC+ctx4
QvjWxjL9Q6bax4FgpMMS8qnBwh+vko8KbQ6+oQCNO5rJ6fpMdfW6sHysLGVK/npn
YQorF6D09lC7aH13lXBgSdXmS6xZroPIRy61njYkrX6PFEsTHTsKw8kht+4FPjnS
uYHPSkIr7V9Tq96HvWKf8IK32s6E5H0vYzFp9Zy6NV9bzJkZoQ1KRC+bAGLN0Jpd
8Udbi5CSLClXXEz65I/1we9GVuw2rC5qFaRGbKShwo89PN/YK8uEMcg9i9gIpthC
0y4e72blhG2XKUHu2r/H0fw+S+PpqfkzSpNZxWtHfurplrkrAScrebPk5WHtCjRx
2sDXDNm3NAdmO9axwsmNFikjREXqjh1aIZHkNszde6PLGRTi38n7yJz3OlpmsSis
Ywefou7Ml+aTATKZVOE+Gdw6svTiKEet/LSaT/1bgzzAxW3z293/qPU/I5H79yR8
tE0kVQKIHVw9BLKZR1zRhhKZuyPzpCpxv2Ik9kulQhZBPXAerF3JIi/cSpkzXccY
r8wnyE/m774E0nmjKiAKy948n2ftAOrXAgMBAAGjezB5MAkGA1UdEwQCMAAwLAYJ
YIZIAYb4QgENBB8WHU9wZW5TU0wgR2VuZXJhdGVkIENlcnRpZmljYXRlMB0GA1Ud
DgQWBBR6phcB0iD2Al7ntmZVROC+7ee+JzAfBgNVHSMEGDAWgBRIQC/+cyJgjf9m
0/ExzOfzpEqj1zANBgkqhkiG9w0BAQsFAAOCAgEAONzlwZnzmjMm8xxfSRAK3rMN
/7lvOkgxiZOZprXuCoYYPvVoTrRAtu9vdQbUSrTVJrrnDTydiJsf2isdYs+FNyWi
qagkIzPV9IcFx5sYOKPDVWIyrtZlOMMO0cS+iAPihUVuXFAXnrqKpoziinKvvPHH
2UofDUtfnIyhljV/OvIydndvRArSMjTuZv2B0+NvFp/TltwL3f2y6UvRaULYviPU
sa4A/KFOjS8LK8gWkI9dXM/dRgNyExabvd7qQ7e/d62lheEy9ZXGxlA7X/B7j8b3
YHjG+eyGbac6UzlLDRwqzLxnhhkVYAfhhfMOlldxMm+VhYBdDcbOCmRBVTi7U9JC
q8hJYQjTqc9gWF3FvhoHiLe8esGGOpHwR6N2apfVz08mwE3UeptZnFpw9qDZx2IS
toQXf8pxtBavBbFSoH18ccTAuVZ181K7Ry/I6C7bn63lL1CenlgTOdcMh1jglybY
06wE049d6dLcT8jq6lArK3sf+fdtlhAkTljtJ62uVIGNUmOY4z5FkIEgzadVxSK2
tUNtR38UwzhEtm3fQeBkQhdMnfqzoKB1lws1fTjQcE53kjq4Ki6585AHknbXDsBQ
/TJiqW6+d1Ccx2jE8I/ss/BmWsdZB8Xk3ZImEwAac/AfY/dQ/jMKnPadm+SvjZ5R
siiE7iGPWjShZrFjqSc=
-----END CERTIFICATE-----
