Certificate:
    Data:
        Version: 3 (0x2)
        Serial Number: 305419903 (0x1234567f)
    Signature Algorithm: sha256WithRSAEncryption
        Issuer: CN=SRK3_sha256_4096_65537_v3_ca
        Validity
            Not Before: Apr 23 19:44:49 2018 GMT
            Not After : Apr 20 19:44:49 2028 GMT
        Subject: CN=CSF3_1_sha256_4096_65537_v3_usr
        Subject Public Key Info:
            Public Key Algorithm: rsaEncryption
                Public-Key: (4096 bit)
                Modulus:
                    00:bc:84:23:d2:ec:79:2a:13:7d:b3:8b:13:2f:df:
                    cf:6c:0c:ad:79:f8:08:53:57:4a:1e:d7:62:de:03:
                    4f:10:65:be:b9:db:16:d0:87:b5:11:48:fb:45:55:
                    04:31:4c:c4:61:0f:d8:2d:30:d7:65:0e:fb:ec:13:
                    20:e6:3d:66:39:5f:44:e8:2f:f3:66:73:e2:58:d2:
                    fa:bd:1f:2e:94:a8:66:e2:c2:b7:c5:69:e9:52:36:
                    fc:a3:ca:71:e0:0c:ae:08:94:26:69:00:0a:9f:9d:
                    c5:e0:18:c8:31:ab:79:f1:e9:11:bb:1b:32:c3:7a:
                    af:6b:7d:48:58:7d:c6:c3:1d:76:54:8f:24:86:a2:
                    04:15:35:ff:4c:06:0d:a2:8b:03:9e:dc:9d:eb:69:
                    0f:82:2e:ac:fb:2e:9b:6d:a2:4f:8a:76:fe:38:96:
                    53:4e:e6:ff:ee:28:9f:39:58:92:45:b4:ee:56:7a:
                    e4:3a:aa:f4:08:ac:e3:9b:52:d6:1b:a9:78:3f:a4:
                    89:47:0b:70:95:63:5b:08:6b:d8:80:bd:44:26:a8:
                    18:06:fc:a6:fb:22:a0:c6:c1:fe:8e:10:ce:a3:29:
                    f1:ca:69:43:91:40:d4:41:f1:29:fa:f8:1e:69:40:
                    13:be:cc:fd:31:83:a6:77:66:83:cc:e9:50:c4:2d:
                    87:71:bd:32:7d:43:fd:7f:31:72:ee:81:85:49:b6:
                    d0:1a:c2:28:a5:02:5a:33:0a:7a:98:d2:af:77:9b:
                    6d:2f:c9:a5:0e:75:1b:8e:8a:ad:ff:8f:5c:5d:3d:
                    04:cb:f6:2b:32:6f:bb:88:ac:0c:43:9a:07:4e:5b:
                    27:74:c8:9e:be:e1:e5:4b:30:f6:14:63:f0:8c:46:
                    95:e1:06:4e:55:e7:c2:33:f3:8e:c9:9b:bc:83:bb:
                    83:88:ee:14:57:4d:ae:49:3c:2e:1b:8b:f0:33:9d:
                    37:ce:1b:8e:c2:c1:91:4d:c9:67:f6:c2:dd:24:87:
                    b5:09:c9:00:96:54:4f:d5:a1:fc:22:6c:40:e5:8a:
                    99:0e:8e:26:da:d7:fc:50:c4:2c:81:34:e4:bf:f7:
                    da:93:83:7c:26:aa:c7:99:27:55:41:31:b2:21:41:
                    51:e6:13:d3:68:fc:6b:05:03:60:ae:04:27:93:32:
                    5f:79:2a:62:ce:1b:a1:63:f9:a6:12:b3:fe:f7:21:
                    65:d6:9d:90:36:e2:92:e3:65:9d:41:7a:1e:c1:a8:
                    1c:3d:38:db:7a:e5:c4:5a:dd:1c:75:d7:2e:27:f0:
                    93:d0:42:cd:b5:e6:c3:56:80:4e:94:08:9b:96:2e:
                    5f:38:94:6a:fa:a5:bd:33:e6:79:23:cc:36:29:28:
                    0d:9f:b9
                Exponent: 65537 (0x10001)
        X509v3 extensions:
            X509v3 Basic Constraints: 
                CA:FALSE
            Netscape Comment: 
                OpenSSL Generated Certificate
            X509v3 Subject Key Identifier: 
                06:CB:15:64:74:C3:8D:EE:1C:CD:81:82:9C:89:A7:03:21:A2:C1:2D
            X509v3 Authority Key Identifier: 
                keyid:56:C0:DB:E5:85:41:9A:BE:3E:E9:AC:D2:44:27:58:0E:41:4F:11:8E

    Signature Algorithm: sha256WithRSAEncryption
         94:18:c8:da:dc:62:3e:06:53:bd:7e:8a:e2:e6:ab:cc:b7:bd:
         93:56:d7:ad:42:5c:76:70:fb:93:2f:ba:a1:cf:17:f6:52:ce:
         be:d8:a6:48:cb:40:e6:01:55:e5:7e:42:ab:2c:e6:13:32:5e:
         3a:d7:f6:6d:4b:83:40:88:1a:3d:44:4d:f5:c3:2b:06:65:92:
         b1:40:5f:95:f4:bd:3e:95:b2:67:1f:29:1c:7f:34:6a:0d:ab:
         1b:67:d5:21:fb:3c:16:4f:47:e6:3f:fa:fc:82:2b:d0:ac:9c:
         10:a0:e5:f7:10:5c:5d:b2:0d:1b:1f:49:73:be:1e:49:f0:41:
         1b:9e:a1:b5:29:62:78:55:0f:f0:fc:32:9d:e2:f3:ff:59:53:
         28:7d:eb:d6:34:f5:ad:f4:67:05:fb:d6:d4:63:4c:31:dc:99:
         74:b3:c3:53:c1:5e:4a:87:da:12:8d:cf:12:0f:67:0e:50:cd:
         ea:7b:4f:2c:a9:87:b8:bc:da:e3:06:b0:98:2b:5d:75:f7:65:
         d7:90:c6:6e:01:04:da:ba:f7:30:fb:cc:b2:c1:1f:28:02:c7:
         e1:ec:bb:07:d9:a7:70:56:6a:d2:f8:55:cf:45:73:11:4a:c5:
         81:ee:b4:23:9f:bc:be:41:04:d3:dd:6f:6e:9d:c9:3e:34:f1:
         72:bd:c6:77:19:b4:cc:4f:19:ea:25:c4:b0:1d:fd:63:bb:83:
         5a:0a:14:34:07:d5:e5:a0:02:07:ac:d4:7a:f8:ff:4f:48:52:
         3b:b0:18:3c:fb:bb:03:92:fc:f5:e6:3b:ba:ce:f8:b5:15:79:
         fe:42:fd:d5:af:ec:ce:d7:24:ff:d8:93:52:79:ff:75:ef:14:
         b8:04:84:bb:4a:9f:3f:c6:00:a6:43:57:3c:d7:50:c6:fa:ee:
         89:64:c4:ca:f8:a0:68:f1:77:9f:c4:99:ef:b5:0f:9b:69:fd:
         88:8f:aa:97:e3:76:c0:50:04:c3:e9:00:15:36:46:47:89:4e:
         22:30:19:dc:e7:9f:78:59:69:2b:f8:5b:86:33:f9:d7:56:10:
         be:62:5e:3d:94:de:98:c1:36:22:80:88:89:02:0a:fb:01:53:
         14:9b:07:c4:e2:c7:f7:84:0f:79:c4:73:c1:99:d8:5e:fb:79:
         7b:59:c6:20:a6:b7:f2:d0:bd:72:ce:d4:e4:e5:4b:6d:11:af:
         92:08:43:0f:3a:4b:6f:88:2c:de:1c:a7:bc:d7:b6:79:e9:da:
         66:be:f7:e2:1e:40:61:af:bd:e4:db:6d:09:5c:6d:50:ea:e6:
         cd:0c:1d:82:5e:89:f3:25:23:a3:47:80:d3:04:87:a6:c0:dc:
         ee:d1:5c:aa:77:e5:e6:dd
-----BEGIN CERTIFICATE-----
MIIFSjCCAzKgAwIBAgIEEjRWfzANBgkqhkiG9w0BAQsFADAnMSUwIwYDVQQDDBxT
UkszX3NoYTI1Nl80MDk2XzY1NTM3X3YzX2NhMB4XDTE4MDQyMzE5NDQ0OVoXDTI4
MDQyMDE5NDQ0OVowKjEoMCYGA1UEAwwfQ1NGM18xX3NoYTI1Nl80MDk2XzY1NTM3
X3YzX3VzcjCCAiIwDQYJKoZIhvcNAQEBBQADggIPADCCAgoCggIBALyEI9LseSoT
fbOLEy/fz2wMrXn4CFNXSh7XYt4DTxBlvrnbFtCHtRFI+0VVBDFMxGEP2C0w12UO
++wTIOY9ZjlfROgv82Zz4ljS+r0fLpSoZuLCt8Vp6VI2/KPKceAMrgiUJmkACp+d
xeAYyDGrefHpEbsbMsN6r2t9SFh9xsMddlSPJIaiBBU1/0wGDaKLA57cnetpD4Iu
rPsum22iT4p2/jiWU07m/+4onzlYkkW07lZ65Dqq9Ais45tS1hupeD+kiUcLcJVj
Wwhr2IC9RCaoGAb8pvsioMbB/o4QzqMp8cppQ5FA1EHxKfr4HmlAE77M/TGDpndm
g8zpUMQth3G9Mn1D/X8xcu6BhUm20BrCKKUCWjMKepjSr3ebbS/JpQ51G46Krf+P
XF09BMv2KzJvu4isDEOaB05bJ3TInr7h5Usw9hRj8IxGleEGTlXnwjPzjsmbvIO7
g4juFFdNrkk8LhuL8DOdN84bjsLBkU3JZ/bC3SSHtQnJAJZUT9Wh/CJsQOWKmQ6O
JtrX/FDELIE05L/32pODfCaqx5knVUExsiFBUeYT02j8awUDYK4EJ5MyX3kqYs4b
oWP5phKz/vchZdadkDbikuNlnUF6HsGoHD0423rlxFrdHHXXLifwk9BCzbXmw1aA
TpQIm5YuXziUavqlvTPmeSPMNikoDZ+5AgMBAAGjezB5MAkGA1UdEwQCMAAwLAYJ
YIZIAYb4QgENBB8WHU9wZW5TU0wgR2VuZXJhdGVkIENlcnRpZmljYXRlMB0GA1Ud
DgQWBBQGyxVkdMON7hzNgYKciacDIaLBLTAfBgNVHSMEGDAWgBRWwNvlhUGavj7p
rNJEJ1gOQU8RjjANBgkqhkiG9w0BAQsFAAOCAgEAlBjI2txiPgZTvX6K4uarzLe9
k1bXrUJcdnD7ky+6oc8X9lLOvtimSMtA5gFV5X5CqyzmEzJeOtf2bUuDQIgaPURN
9cMrBmWSsUBflfS9PpWyZx8pHH80ag2rG2fVIfs8Fk9H5j/6/IIr0KycEKDl9xBc
XbINGx9Jc74eSfBBG56htSlieFUP8PwyneLz/1lTKH3r1jT1rfRnBfvW1GNMMdyZ
dLPDU8FeSofaEo3PEg9nDlDN6ntPLKmHuLza4wawmCtddfdl15DGbgEE2rr3MPvM
ssEfKALH4ey7B9mncFZq0vhVz0VzEUrFge60I5+8vkEE091vbp3JPjTxcr3Gdxm0
zE8Z6iXEsB39Y7uDWgoUNAfV5aACB6zUevj/T0hSO7AYPPu7A5L89eY7us74tRV5
/kL91a/sztck/9iTUnn/de8UuASEu0qfP8YApkNXPNdQxvruiWTEyvigaPF3n8SZ
77UPm2n9iI+ql+N2wFAEw+kAFTZGR4lOIjAZ3OefeFlpK/hbhjP511YQvmJePZTe
mME2IoCIiQIK+wFTFJsHxOLH94QPecRzwZnYXvt5e1nGIKa38tC9cs7U5OVLbRGv
kghDDzpLb4gs3hynvNe2eenaZr734h5AYa+95NttCVxtUOrmzQwdgl6J8yUjo0eA
0wSHpsDc7tFcqnfl5t0=
-----END CERTIFICATE-----
