Certificate:
    Data:
        Version: 3 (0x2)
        Serial Number: 305419901 (0x1234567d)
    Signature Algorithm: sha256WithRSAEncryption
        Issuer: CN=SRK2_sha256_4096_65537_v3_ca
        Validity
            Not Before: Apr 23 19:44:49 2018 GMT
            Not After : Apr 20 19:44:49 2028 GMT
        Subject: CN=IMG2_1_sha256_4096_65537_v3_usr
        Subject Public Key Info:
            Public Key Algorithm: rsaEncryption
                Public-Key: (4096 bit)
                Modulus:
                    00:af:c9:df:4d:58:8b:b3:54:43:8c:98:62:16:a8:
                    d2:78:ba:1f:5b:75:16:09:ee:4c:88:df:40:1e:2c:
                    52:bf:1e:a2:8b:8e:50:22:61:99:cc:99:e3:46:13:
                    1b:8d:4e:d9:d6:83:97:8b:bd:6c:44:51:8d:a7:b6:
                    64:47:9e:40:60:dc:83:46:4b:00:1c:aa:c7:c5:dd:
                    d8:3c:a4:4e:c9:63:15:9f:11:48:9b:30:c7:90:8b:
                    7d:c9:a0:3e:a4:9e:0a:61:57:7a:c7:4c:72:5c:9a:
                    18:df:25:23:7a:38:91:a6:29:f5:0f:27:87:1a:04:
                    d1:69:4b:62:09:eb:2e:3a:52:94:b3:ae:dd:8f:6a:
                    d5:9c:bc:1c:19:50:72:7e:68:d4:78:2e:22:09:18:
                    e3:46:8d:10:f2:d1:f0:e7:87:47:5a:a4:b0:e0:2d:
                    61:26:16:10:2d:eb:33:b4:bc:29:aa:d5:3a:6b:2f:
                    d7:37:41:62:c3:62:24:79:55:37:06:e9:70:68:fa:
                    c3:cd:ff:50:e4:0f:f3:39:4b:04:75:10:7f:72:de:
                    96:ff:55:9b:52:ae:67:e8:1f:2d:ea:64:fe:e0:b5:
                    f2:60:f5:0d:bf:d6:42:b2:d7:30:17:ac:e6:95:3d:
                    ae:7f:d1:4f:e9:65:a8:bc:9a:4d:25:17:01:43:97:
                    b2:07:9c:e0:7a:f3:d0:1d:07:48:eb:46:44:91:69:
                    2f:3a:e1:8d:30:9e:65:15:b2:11:83:7d:84:28:51:
                    a3:55:c0:6c:22:12:cc:3a:aa:2d:e7:f7:c3:1a:c4:
                    68:2a:6a:74:4a:5c:c4:63:0c:52:df:05:0f:4c:e0:
                    3e:9c:5a:c6:f3:4d:13:65:10:56:e4:fe:37:22:bb:
                    61:63:9b:34:64:b7:a1:02:9b:8f:17:ff:cd:f8:c9:
                    e8:e3:9c:69:18:87:99:10:24:7d:7d:fa:7f:75:34:
                    a6:72:d9:24:96:ba:c1:95:98:85:31:40:d9:eb:73:
                    80:19:b5:68:ad:1d:cb:29:10:10:d7:bc:80:05:b6:
                    7d:91:d4:45:b5:ef:39:7d:4a:f2:aa:79:f1:9b:ad:
                    c6:f2:83:59:26:33:8a:56:25:c9:f3:9b:13:7b:1c:
                    bd:89:4a:20:c5:d0:10:41:bf:af:6f:dd:e0:90:af:
                    c5:94:8a:28:03:5c:fd:34:7f:1e:b2:fb:92:78:db:
                    43:da:ea:8a:2f:66:7b:59:0f:b0:bf:ba:e1:2b:cd:
                    c7:3a:44:8f:a7:4c:66:be:4d:79:cc:58:8c:79:bc:
                    4f:99:95:68:3c:6a:c0:31:be:58:cd:95:46:bc:a7:
                    db:4e:36:0c:49:64:2a:a7:23:2a:49:a9:bf:61:3d:
                    dc:75:83
                Exponent: 65537 (0x10001)
        X509v3 extensions:
            X509v3 Basic Constraints: 
                CA:FALSE
            Netscape Comment: 
                OpenSSL Generated Certificate
            X509v3 Subject Key Identifier: 
                FF:51:AD:9C:F3:E9:BB:4C:69:41:86:09:FA:9F:08:9D:83:F1:0D:31
            X509v3 Authority Key Identifier: 
                keyid:48:40:2F:FE:73:22:60:8D:FF:66:D3:F1:31:CC:E7:F3:A4:4A:A3:D7

    Signature Algorithm: sha256WithRSAEncryption
         1f:69:8b:c7:67:84:33:3f:2e:3d:1c:d5:59:5c:80:30:ed:60:
         31:6a:c6:ae:cf:5e:c5:f8:99:b5:15:fa:73:88:d7:f9:9d:44:
         80:02:74:0f:52:c9:0c:5a:71:c1:ae:0e:da:74:40:f4:53:e6:
         11:be:19:72:19:5e:6f:4b:0b:94:44:aa:7b:f8:94:5d:87:03:
         50:5e:61:23:e3:51:64:b8:7b:0c:26:39:b2:2a:86:4c:26:3d:
         86:6e:02:58:63:88:ce:91:c5:be:28:89:9d:b0:bf:66:8e:2d:
         6f:30:50:1a:34:25:1d:df:3e:80:ff:35:54:8a:59:c9:1a:fd:
         82:3d:7e:51:37:9d:e7:39:38:bf:80:90:d0:1c:4f:a8:d3:f3:
         01:c5:24:3e:f4:d5:f9:08:55:ab:7b:f2:b7:53:67:e8:fa:08:
         9f:ee:1b:63:04:3a:b0:98:43:96:11:8f:04:b1:33:21:bd:86:
         d2:45:c6:46:cd:ca:4d:86:15:cf:e0:73:8a:b6:b0:d4:f4:aa:
         32:23:4c:2b:ee:17:39:59:a1:c5:1d:da:c5:33:f4:e7:47:c6:
         29:70:a7:c2:37:04:70:f5:a3:05:2a:61:f6:2c:9b:00:e9:c0:
         8c:3a:2e:b0:fc:e1:de:aa:aa:88:a6:34:23:c8:13:34:b6:98:
         51:67:17:be:e5:cd:98:70:01:dd:1e:78:f5:b6:75:8d:7d:d5:
         e3:d4:78:d8:59:80:dc:98:9b:bc:08:88:6f:90:ac:ec:dc:56:
         ae:c1:2f:f2:2a:f9:ec:70:3b:6e:df:65:e7:f2:aa:1d:2c:a8:
         32:ce:7d:38:2b:53:2c:7a:fe:09:e4:dc:4c:0d:62:54:5c:27:
         80:26:78:37:62:08:c6:e4:79:57:b1:92:43:a4:ba:ca:a6:8e:
         dc:62:d4:06:f0:cc:19:a6:11:e4:ef:eb:cd:7c:f4:9c:f2:ac:
         96:54:ed:22:c8:3d:9d:47:1f:44:9d:8c:21:fc:ff:b8:db:46:
         56:77:89:76:08:6e:56:74:8f:c3:5b:1f:a7:aa:8c:8e:8a:97:
         75:6a:07:71:23:f6:49:3e:f3:f9:e0:36:b7:a1:b8:f5:33:b1:
         ad:c4:9f:03:ee:7f:b4:06:5c:f2:ba:21:78:c4:de:c4:26:9e:
         0c:64:da:43:e3:ed:2d:ed:bc:25:7e:95:33:a5:05:72:8f:e9:
         4b:c5:d9:1c:c5:e5:9e:b5:87:65:e3:49:15:50:f5:b5:fe:a3:
         a9:f3:93:1b:1e:03:56:77:12:a3:e7:67:e3:c6:48:22:07:45:
         aa:01:e3:e0:14:cc:6c:c8:4b:1a:3e:ca:81:77:ce:03:53:be:
         9b:f7:4f:0f:c6:e9:a6:90
-----BEGIN CERTIFICATE-----
MIIFSjCCAzKgAwIBAgIEEjRWfTANBgkqhkiG9w0BAQsFADAnMSUwIwYDVQQDDBxT
UksyX3NoYTI1Nl80MDk2XzY1NTM3X3YzX2NhMB4XDTE4MDQyMzE5NDQ0OVoXDTI4
MDQyMDE5NDQ0OVowKjEoMCYGA1UEAwwfSU1HMl8xX3NoYTI1Nl80MDk2XzY1NTM3
X3YzX3VzcjCCAiIwDQYJKoZIhvcNAQEBBQADggIPADCCAgoCggIBAK/J301Yi7NU
Q4yYYhao0ni6H1t1FgnuTIjfQB4sUr8eoouOUCJhmcyZ40YTG41O2daDl4u9bERR
jae2ZEeeQGDcg0ZLAByqx8Xd2DykTsljFZ8RSJswx5CLfcmgPqSeCmFXesdMclya
GN8lI3o4kaYp9Q8nhxoE0WlLYgnrLjpSlLOu3Y9q1Zy8HBlQcn5o1HguIgkY40aN
EPLR8OeHR1qksOAtYSYWEC3rM7S8KarVOmsv1zdBYsNiJHlVNwbpcGj6w83/UOQP
8zlLBHUQf3Lelv9Vm1KuZ+gfLepk/uC18mD1Db/WQrLXMBes5pU9rn/RT+llqLya
TSUXAUOXsgec4Hrz0B0HSOtGRJFpLzrhjTCeZRWyEYN9hChRo1XAbCISzDqqLef3
wxrEaCpqdEpcxGMMUt8FD0zgPpxaxvNNE2UQVuT+NyK7YWObNGS3oQKbjxf/zfjJ
6OOcaRiHmRAkfX36f3U0pnLZJJa6wZWYhTFA2etzgBm1aK0dyykQENe8gAW2fZHU
RbXvOX1K8qp58ZutxvKDWSYzilYlyfObE3scvYlKIMXQEEG/r2/d4JCvxZSKKANc
/TR/HrL7knjbQ9rqii9me1kPsL+64SvNxzpEj6dMZr5NecxYjHm8T5mVaDxqwDG+
WM2VRryn2042DElkKqcjKkmpv2E93HWDAgMBAAGjezB5MAkGA1UdEwQCMAAwLAYJ
YIZIAYb4QgENBB8WHU9wZW5TU0wgR2VuZXJhdGVkIENlcnRpZmljYXRlMB0GA1Ud
DgQWBBT/Ua2c8+m7TGlBhgn6nwidg/ENMTAfBgNVHSMEGDAWgBRIQC/+cyJgjf9m
0/ExzOfzpEqj1zANBgkqhkiG9w0BAQsFAAOCAgEAH2mLx2eEMz8uPRzVWVyAMO1g
MWrGrs9exfiZtRX6c4jX+Z1EgAJ0D1LJDFpxwa4O2nRA9FPmEb4Zchleb0sLlESq
e/iUXYcDUF5hI+NRZLh7DCY5siqGTCY9hm4CWGOIzpHFviiJnbC/Zo4tbzBQGjQl
Hd8+gP81VIpZyRr9gj1+UTed5zk4v4CQ0BxPqNPzAcUkPvTV+QhVq3vyt1Nn6PoI
n+4bYwQ6sJhDlhGPBLEzIb2G0kXGRs3KTYYVz+Bziraw1PSqMiNMK+4XOVmhxR3a
xTP050fGKXCnwjcEcPWjBSph9iybAOnAjDousPzh3qqqiKY0I8gTNLaYUWcXvuXN
mHAB3R549bZ1jX3V49R42FmA3JibvAiIb5Cs7NxWrsEv8ir57HA7bt9l5/KqHSyo
Ms59OCtTLHr+CeTcTA1iVFwngCZ4N2IIxuR5V7GSQ6S6yqaO3GLUBvDMGaYR5O/r
zXz0nPKsllTtIsg9nUcfRJ2MIfz/uNtGVneJdghuVnSPw1sfp6qMjoqXdWoHcSP2
ST7z+eA2t6G49TOxrcSfA+5/tAZc8roheMTexCaeDGTaQ+PtLe28JX6VM6UFco/p
S8XZHMXlnrWHZeNJFVD1tf6jqfOTGx4DVncSo+dn48ZIIgdFqgHj4BTMbMhLGj7K
gXfOA1O+m/dPD8bpppA=
-----END CERTIFICATE-----
