Certificate:
    Data:
        Version: 3 (0x2)
        Serial Number: 305419907 (0x12345683)
    Signature Algorithm: sha256WithRSAEncryption
        Issuer: CN=SRK4_sha256_4096_65537_v3_ca
        Validity
            Not Before: Apr 23 19:44:52 2018 GMT
            Not After : Apr 20 19:44:52 2028 GMT
        Subject: CN=IMG4_1_sha256_4096_65537_v3_usr
        Subject Public Key Info:
            Public Key Algorithm: rsaEncryption
                Public-Key: (4096 bit)
                Modulus:
                    00:dc:48:9a:d9:8e:5c:e6:9b:5f:7e:05:b3:e2:08:
                    9f:be:31:5b:ad:bd:d7:0f:ff:f1:22:ca:99:94:d7:
                    49:61:d5:ac:79:46:84:9f:90:2d:1b:59:1a:88:0e:
                    19:cf:fa:24:20:69:ad:78:a0:3c:ec:2e:49:ba:bf:
                    08:a0:e0:de:c7:b1:d5:46:ef:e4:51:c4:ba:80:18:
                    b5:11:04:43:79:24:f0:d2:e1:b0:a6:ec:ae:28:3b:
                    42:34:64:81:ee:42:4b:37:41:6e:ab:7f:c3:90:eb:
                    1f:99:a7:d4:1f:50:5c:34:e3:ac:c5:04:e1:24:a9:
                    3f:67:09:1b:f0:d5:b4:6f:01:cd:32:42:93:b5:02:
                    b0:e0:c4:f8:df:58:2f:8d:a8:60:7a:73:c7:5e:ef:
                    c0:ee:6e:8d:69:8e:5b:f4:84:6f:1c:ab:5b:43:37:
                    b6:fb:7c:cd:ab:79:ba:35:d9:32:b2:7e:30:3f:2e:
                    2c:26:3a:de:6e:e7:4a:04:d7:fd:80:da:84:76:30:
                    53:22:b8:2f:35:f8:ea:3b:95:e6:59:da:85:dd:0e:
                    1b:52:8c:f0:f9:e9:af:57:2f:d1:17:bb:d1:d4:35:
                    f2:44:eb:94:2d:bc:93:ce:96:ca:90:93:cb:8e:32:
                    ad:f6:3b:bc:e6:5b:55:92:3f:2c:a5:70:6f:83:c6:
                    99:fa:10:22:67:5d:01:db:5a:f7:7b:61:c9:e3:12:
                    f2:bd:93:2e:ca:0f:53:26:f0:c3:bd:50:54:bc:a2:
                    74:94:ba:f4:c1:9f:92:5a:52:b9:01:16:58:45:f5:
                    a2:e2:d7:72:d6:14:21:46:25:60:df:d4:e6:9a:dc:
                    65:c8:7b:e7:2f:0d:8e:66:98:ab:5f:3d:c1:1a:19:
                    c9:c5:93:f8:29:59:1d:c8:3e:93:4a:59:cf:04:b1:
                    b2:57:2b:49:23:59:bb:b6:73:c7:3d:e9:ea:3f:86:
                    60:b8:c4:cc:19:c4:7a:8b:79:02:85:90:a0:35:a2:
                    2d:b7:e5:27:bb:f9:07:3e:9f:bd:a4:a4:4c:48:ca:
                    00:11:cc:02:26:6c:e8:a8:0e:7a:2d:f6:83:33:ce:
                    88:e3:6b:44:d8:79:f6:72:5a:41:5c:da:53:00:8f:
                    bf:83:1a:d3:6f:17:cf:ee:f4:a0:41:a0:5f:12:80:
                    50:77:4d:58:f9:7e:40:81:ca:1b:fb:db:64:dc:1e:
                    54:24:9c:6e:ab:86:94:09:15:bb:85:36:a5:ac:2c:
                    cd:d9:74:db:36:a7:58:1e:f2:43:34:60:78:76:32:
                    2b:ee:46:15:e5:29:9b:0b:70:28:3c:5b:db:c0:e6:
                    dc:65:af:45:7d:5a:e1:b6:c1:86:1c:bb:41:4a:ea:
                    9e:8a:27
                Exponent: 65537 (0x10001)
        X509v3 extensions:
            X509v3 Basic Constraints: 
                CA:FALSE
            Netscape Comment: 
                OpenSSL Generated Certificate
            X509v3 Subject Key Identifier: 
                25:7A:10:3A:A2:6C:61:5C:B0:90:36:ED:5F:9A:CD:1C:28:36:BB:F7
            X509v3 Authority Key Identifier: 
                keyid:7F:F5:8C:BE:96:44:A0:1D:7F:B0:4C:94:AB:0D:49:8D:E7:D5:34:AB

    Signature Algorithm: sha256WithRSAEncryption
         1c:c5:32:4c:db:e8:60:dc:7d:dd:43:e7:42:3f:5e:e0:c2:93:
         e6:77:c2:ad:0e:40:b1:86:4c:4d:f2:62:6c:2d:eb:6b:76:9f:
         5d:b7:f5:13:3a:5b:7a:88:a4:13:1d:22:13:69:ea:d6:28:8f:
         77:9b:1a:2a:00:26:2f:42:67:dd:5e:ae:8f:85:cd:a5:cd:57:
         b5:d3:a5:a5:5e:68:02:35:a0:5c:a6:33:08:1b:ac:f0:7c:e2:
         97:41:a2:76:90:24:a2:07:0f:c0:ef:03:10:73:db:bc:4b:79:
         1d:bf:96:87:d5:a3:7e:1c:43:18:e9:a2:49:fd:70:43:a8:c6:
         d0:04:b8:53:12:4c:9d:97:33:56:11:6b:46:a5:36:5f:e0:d5:
         b1:ab:57:53:af:a4:99:ca:aa:7d:14:6b:d9:6c:e7:0d:bd:ce:
         f6:c6:4f:f4:43:41:15:90:df:cc:78:f6:e2:33:b3:dc:68:af:
         00:8c:73:2d:84:62:73:f4:0e:dc:47:c3:b8:3c:d0:c1:8e:8d:
         a6:a8:ef:b9:ef:2b:4c:ce:bb:c0:94:53:83:4c:b7:cc:58:d2:
         8a:d6:d7:a0:58:6a:28:07:3a:56:2a:38:c3:ce:b8:1d:5b:d9:
         f4:12:a9:04:3e:ba:b6:fd:be:c4:a2:9a:37:b3:62:0f:6b:94:
         67:54:3c:1c:4a:d6:d3:5b:f0:9b:ee:8d:ea:c5:98:c6:97:0a:
         9f:56:ff:25:a2:af:d4:09:ae:5f:a6:87:30:43:d1:ae:fa:1f:
         99:b9:d2:a1:56:42:3c:2a:3c:82:52:0b:ea:3f:c2:4d:93:fb:
         db:29:04:8b:52:fa:cd:a5:0e:fb:58:d6:0a:8b:05:a3:72:26:
         16:96:7b:c0:01:ac:65:12:2d:bd:33:c9:3a:22:14:ad:d9:7a:
         37:73:c4:d8:40:5a:a7:34:84:e2:64:b9:d9:6b:e9:66:72:e6:
         5a:3e:9b:b2:90:e1:be:4e:a8:69:28:2d:91:05:53:be:4c:d2:
         0f:8b:fa:36:66:a4:b7:f7:27:39:c4:f7:62:b8:c9:3b:89:e0:
         0d:f5:af:46:17:1b:93:b3:8b:0f:10:af:8f:ab:8b:7c:3d:48:
         19:ec:5d:14:27:20:d1:13:d7:38:93:b9:89:a4:26:10:d0:b5:
         2f:2b:a4:c6:41:0b:6d:82:75:6c:0c:c4:19:dd:21:52:10:14:
         02:b8:24:15:4f:b5:74:2d:42:a8:b1:e1:bf:4f:7e:b9:d8:39:
         68:3b:45:af:ed:52:18:40:25:3f:28:a7:32:29:d6:f7:44:ec:
         96:6e:c5:4f:c9:40:42:86:3c:c3:7d:7d:aa:b7:45:cc:e8:ec:
         22:51:dd:fb:de:33:01:95
-----BEGIN CERTIFICATE-----
MIIFSjCCAzKgAwIBAgIEEjRWgzANBgkqhkiG9w0BAQsFADAnMSUwIwYDVQQDDBxT
Uks0X3NoYTI1Nl80MDk2XzY1NTM3X3YzX2NhMB4XDTE4MDQyMzE5NDQ1MloXDTI4
MDQyMDE5NDQ1MlowKjEoMCYGA1UEAwwfSU1HNF8xX3NoYTI1Nl80MDk2XzY1NTM3
X3YzX3VzcjCCAiIwDQYJKoZIhvcNAQEBBQADggIPADCCAgoCggIBANxImtmOXOab
X34Fs+IIn74xW6291w//8SLKmZTXSWHVrHlGhJ+QLRtZGogOGc/6JCBprXigPOwu
Sbq/CKDg3sex1Ubv5FHEuoAYtREEQ3kk8NLhsKbsrig7QjRkge5CSzdBbqt/w5Dr
H5mn1B9QXDTjrMUE4SSpP2cJG/DVtG8BzTJCk7UCsODE+N9YL42oYHpzx17vwO5u
jWmOW/SEbxyrW0M3tvt8zat5ujXZMrJ+MD8uLCY63m7nSgTX/YDahHYwUyK4LzX4
6juV5lnahd0OG1KM8Pnpr1cv0Re70dQ18kTrlC28k86WypCTy44yrfY7vOZbVZI/
LKVwb4PGmfoQImddAdta93thyeMS8r2TLsoPUybww71QVLyidJS69MGfklpSuQEW
WEX1ouLXctYUIUYlYN/U5prcZch75y8NjmaYq189wRoZycWT+ClZHcg+k0pZzwSx
slcrSSNZu7Zzxz3p6j+GYLjEzBnEeot5AoWQoDWiLbflJ7v5Bz6fvaSkTEjKABHM
AiZs6KgOei32gzPOiONrRNh59nJaQVzaUwCPv4Ma028Xz+70oEGgXxKAUHdNWPl+
QIHKG/vbZNweVCScbquGlAkVu4U2pawszdl02zanWB7yQzRgeHYyK+5GFeUpmwtw
KDxb28Dm3GWvRX1a4bbBhhy7QUrqnoonAgMBAAGjezB5MAkGA1UdEwQCMAAwLAYJ
YIZIAYb4QgENBB8WHU9wZW5TU0wgR2VuZXJhdGVkIENlcnRpZmljYXRlMB0GA1Ud
DgQWBBQlehA6omxhXLCQNu1fms0cKDa79zAfBgNVHSMEGDAWgBR/9Yy+lkSgHX+w
TJSrDUmN59U0qzANBgkqhkiG9w0BAQsFAAOCAgEAHMUyTNvoYNx93UPnQj9e4MKT
5nfCrQ5AsYZMTfJibC3ra3afXbf1EzpbeoikEx0iE2nq1iiPd5saKgAmL0Jn3V6u
j4XNpc1XtdOlpV5oAjWgXKYzCBus8Hzil0GidpAkogcPwO8DEHPbvEt5Hb+Wh9Wj
fhxDGOmiSf1wQ6jG0AS4UxJMnZczVhFrRqU2X+DVsatXU6+kmcqqfRRr2WznDb3O
9sZP9ENBFZDfzHj24jOz3GivAIxzLYRic/QO3EfDuDzQwY6Npqjvue8rTM67wJRT
g0y3zFjSitbXoFhqKAc6Vio4w864HVvZ9BKpBD66tv2+xKKaN7NiD2uUZ1Q8HErW
01vwm+6N6sWYxpcKn1b/JaKv1AmuX6aHMEPRrvofmbnSoVZCPCo8glIL6j/CTZP7
2ykEi1L6zaUO+1jWCosFo3ImFpZ7wAGsZRItvTPJOiIUrdl6N3PE2EBapzSE4mS5
2WvpZnLmWj6bspDhvk6oaSgtkQVTvkzSD4v6Nmakt/cnOcT3YrjJO4ngDfWvRhcb
k7OLDxCvj6uLfD1IGexdFCcg0RPXOJO5iaQmENC1LyukxkELbYJ1bAzEGd0hUhAU
ArgkFU+1dC1CqLHhv09+udg5aDtFr+1SGEAlPyinMinW90Tslm7FT8lAQoY8w319
qrdFzOjsIlHd+94zAZU=
-----END CERTIFICATE-----
