Certificate:
    Data:
        Version: 3 (0x2)
        Serial Number: 305419899 (0x1234567b)
    Signature Algorithm: sha256WithRSAEncryption
        Issuer: CN=CA1_sha256_4096_65537_v3_ca
        Validity
            Not Before: Apr 23 19:44:47 2018 GMT
            Not After : Apr 20 19:44:47 2028 GMT
        Subject: CN=SRK2_sha256_4096_65537_v3_ca
        Subject Public Key Info:
            Public Key Algorithm: rsaEncryption
                Public-Key: (4096 bit)
                Modulus:
                    00:ab:a2:89:48:48:cb:8c:5a:e6:1a:e9:ba:46:2c:
                    ed:ae:69:8b:aa:f7:27:90:e3:b8:4a:47:75:fb:4c:
                    f3:1f:72:4c:be:a8:45:bb:15:08:d6:0c:31:26:bf:
                    81:bd:80:57:68:15:19:28:99:3a:99:aa:5c:42:d4:
                    7f:12:e3:12:c3:e4:f6:83:b3:fa:1b:68:ea:74:b9:
                    39:e7:65:9e:04:52:a3:f2:3e:28:8e:56:c5:3b:03:
                    71:2a:33:51:3a:cc:60:67:7d:78:80:37:12:17:6b:
                    4d:cf:0e:6a:4d:7e:fc:51:c3:9e:a7:9b:90:17:cf:
                    30:f4:16:2d:05:20:ef:89:fa:56:13:8a:a8:78:4f:
                    5f:de:00:cf:56:d7:3f:6f:76:a0:84:d9:0e:9b:b5:
                    6c:e0:e7:3b:18:15:85:e7:96:ea:23:cf:9f:66:e3:
                    5f:90:b5:b1:43:3e:f2:5e:77:81:9e:b1:a3:1d:cb:
                    c4:ea:8c:5d:df:68:86:7b:eb:2a:fd:bb:67:c6:4e:
                    0d:d6:3a:ed:1a:3a:da:f7:d9:67:48:ff:b0:1b:09:
                    da:fc:0a:56:e1:ca:57:1d:69:82:65:21:9b:f1:14:
                    55:e1:a3:6f:9a:ad:8d:e8:88:82:cb:c7:0d:1f:f1:
                    2f:9b:2d:fa:b9:8e:91:df:03:a3:84:21:f0:61:5d:
                    d7:1c:55:05:e9:35:2f:7d:80:64:61:97:ec:b9:24:
                    8f:d9:47:72:21:60:d2:12:4b:6c:e8:70:df:be:de:
                    af:74:9c:cc:38:2a:ac:68:0a:fc:b2:eb:2a:7d:5b:
                    48:d9:5a:56:ef:f8:b2:06:c1:bc:f2:c4:cb:d8:71:
                    71:75:73:3c:e8:2c:67:db:28:a1:6e:42:7d:40:67:
                    8a:b7:1b:a9:6e:15:44:a7:a1:c9:9d:25:40:e6:9b:
                    09:d0:d4:ea:51:dd:64:75:5f:db:1a:77:17:63:d9:
                    87:dd:5a:5f:bb:32:dd:dd:0d:a1:30:4b:6e:3b:03:
                    2e:74:2b:ce:77:ff:50:3e:71:30:83:01:03:15:a7:
                    7a:b7:a0:9c:73:77:57:dd:6d:0f:39:39:d9:c4:60:
                    86:0f:ba:c6:07:80:35:b8:61:fa:ea:46:ac:f9:69:
                    f2:f2:81:4b:16:5f:b2:a5:f3:5c:cc:3f:cb:a3:43:
                    0f:28:c3:a7:0a:da:5a:02:b4:d8:4a:6b:77:ba:05:
                    0b:78:6b:a4:fd:d0:57:ea:25:02:11:10:7b:1f:98:
                    8e:ab:d0:2b:25:c0:cd:a2:c0:d8:4f:a0:22:e6:60:
                    d4:f7:89:8c:2e:63:5c:bd:b1:7f:1d:a3:ff:18:d4:
                    2a:27:77:ee:c2:62:7e:04:4f:25:1d:ab:91:5b:73:
                    36:77:75
                Exponent: 65537 (0x10001)
        X509v3 extensions:
            X509v3 Subject Key Identifier: 
                48:40:2F:FE:73:22:60:8D:FF:66:D3:F1:31:CC:E7:F3:A4:4A:A3:D7
            X509v3 Authority Key Identifier: 
                keyid:41:04:7C:3A:0C:AD:54:08:9E:DF:82:8E:8A:0D:0C:D0:D2:E7:F5:8D
                DirName:/CN=CA1_sha256_4096_65537_v3_ca
                serial:95:B3:25:06:C6:38:57:0E

            X509v3 Basic Constraints: critical
                CA:TRUE
            X509v3 Key Usage: 
                Certificate Sign
    Signature Algorithm: sha256WithRSAEncryption
         52:b8:d1:d7:93:1d:4b:fc:ea:a1:25:a7:e8:43:13:e8:fd:86:
         93:b6:a8:ac:b2:7e:51:aa:4e:f6:c5:ab:88:55:d4:68:43:ce:
         81:1c:d2:d5:de:ad:48:22:d6:eb:60:12:ed:a8:cd:1f:2a:9d:
         8b:4a:76:15:7a:2a:a1:30:30:a5:d8:e7:97:21:c3:a7:68:3d:
         26:c7:80:05:af:aa:31:ed:c8:17:08:82:21:cb:8e:68:89:ad:
         f6:81:4e:23:b9:69:f5:8b:be:0e:f5:66:42:aa:e2:aa:0d:55:
         5f:8e:61:9e:1b:4b:97:db:22:fa:0b:2e:8e:3d:18:1d:11:9f:
         1a:a7:da:b2:00:6a:68:1d:cf:73:a0:ff:f3:bb:70:d6:a7:03:
         8d:b1:54:c3:94:4b:74:57:f6:f4:b5:0e:2c:99:e0:73:3b:4b:
         6e:63:f9:27:07:1c:f1:7a:0d:80:72:e0:07:f7:8f:50:1e:82:
         30:56:7f:a7:25:53:8a:a9:bf:0b:29:bb:32:66:ce:b2:2b:d6:
         ca:8e:b8:4e:d2:ea:b9:1a:e4:28:6d:c9:e1:61:bf:cc:f1:9b:
         ad:77:ed:a8:a6:2e:5d:35:65:dd:40:e6:6e:1b:5e:c6:1a:97:
         7b:f4:9d:a6:9f:33:fd:da:30:c6:8f:5c:8c:47:bf:49:27:29:
         31:6f:13:f1:12:84:f9:43:b1:83:de:ea:7b:5a:be:cb:15:4c:
         4a:d4:6b:c6:8d:5f:27:10:76:c6:14:83:1f:ff:19:26:06:47:
         bc:77:27:b1:3c:ed:20:3a:6d:f7:1f:49:93:5c:df:fe:bb:a9:
         4a:2e:82:ab:28:84:c3:6a:e1:e0:4d:d5:32:93:fb:43:c1:6d:
         78:2f:4a:fc:aa:34:e6:15:3f:f1:e6:b3:d5:cc:9d:bf:3b:2d:
         47:53:79:02:71:49:87:aa:4c:4e:97:05:b4:9d:b4:71:0d:ab:
         9d:53:bc:13:60:c2:05:31:32:a8:4f:0c:e1:de:d5:26:4c:74:
         19:6a:cb:25:d9:99:a4:fa:fc:05:b0:ce:d9:da:74:f4:54:ed:
         80:61:08:e7:ea:4c:b2:cb:d3:50:87:31:c7:d5:34:90:ef:f9:
         d1:ac:55:e2:d8:68:c1:57:ad:41:47:79:46:69:ac:f3:fa:ed:
         19:26:b7:e2:71:69:f1:61:9e:ec:96:bf:f0:18:fa:48:7b:c2:
         40:61:7c:b4:65:b6:94:00:64:ab:0c:72:d2:15:de:c2:78:b6:
         87:56:b7:d2:aa:82:b1:71:e7:7c:62:04:d8:e0:b9:1c:eb:c5:
         46:2e:ec:f4:99:26:96:4b:5c:2c:fa:e3:bb:ee:92:51:72:90:
         a3:a6:70:cf:bf:62:16:96
-----BEGIN CERTIFICATE-----
MIIFZDCCA0ygAwIBAgIEEjRWezANBgkqhkiG9w0BAQsFADAmMSQwIgYDVQQDFBtD
QTFfc2hhMjU2XzQwOTZfNjU1MzdfdjNfY2EwHhcNMTgwNDIzMTk0NDQ3WhcNMjgw
NDIwMTk0NDQ3WjAnMSUwIwYDVQQDDBxTUksyX3NoYTI1Nl80MDk2XzY1NTM3X3Yz
X2NhMIICIjANBgkqhkiG9w0BAQEFAAOCAg8AMIICCgKCAgEAq6KJSEjLjFrmGum6
RiztrmmLqvcnkOO4Skd1+0zzH3JMvqhFuxUI1gwxJr+BvYBXaBUZKJk6mapcQtR/
EuMSw+T2g7P6G2jqdLk552WeBFKj8j4ojlbFOwNxKjNROsxgZ314gDcSF2tNzw5q
TX78UcOep5uQF88w9BYtBSDvifpWE4qoeE9f3gDPVtc/b3aghNkOm7Vs4Oc7GBWF
55bqI8+fZuNfkLWxQz7yXneBnrGjHcvE6oxd32iGe+sq/btnxk4N1jrtGjra99ln
SP+wGwna/ApW4cpXHWmCZSGb8RRV4aNvmq2N6IiCy8cNH/Evmy36uY6R3wOjhCHw
YV3XHFUF6TUvfYBkYZfsuSSP2UdyIWDSEkts6HDfvt6vdJzMOCqsaAr8susqfVtI
2VpW7/iyBsG88sTL2HFxdXM86Cxn2yihbkJ9QGeKtxupbhVEp6HJnSVA5psJ0NTq
Ud1kdV/bGncXY9mH3VpfuzLd3Q2hMEtuOwMudCvOd/9QPnEwgwEDFad6t6Ccc3dX
3W0POTnZxGCGD7rGB4A1uGH66kas+Wny8oFLFl+ypfNczD/Lo0MPKMOnCtpaArTY
Smt3ugULeGuk/dBX6iUCERB7H5iOq9ArJcDNosDYT6Ai5mDU94mMLmNcvbF/HaP/
GNQqJ3fuwmJ+BE8lHauRW3M2d3UCAwEAAaOBmDCBlTAdBgNVHQ4EFgQUSEAv/nMi
YI3/ZtPxMczn86RKo9cwVgYDVR0jBE8wTYAUQQR8OgytVAie34KOig0M0NLn9Y2h
KqQoMCYxJDAiBgNVBAMUG0NBMV9zaGEyNTZfNDA5Nl82NTUzN192M19jYYIJAJWz
JQbGOFcOMA8GA1UdEwEB/wQFMAMBAf8wCwYDVR0PBAQDAgIEMA0GCSqGSIb3DQEB
CwUAA4ICAQBSuNHXkx1L/OqhJafoQxPo/YaTtqissn5Rqk72xauIVdRoQ86BHNLV
3q1IItbrYBLtqM0fKp2LSnYVeiqhMDCl2OeXIcOnaD0mx4AFr6ox7cgXCIIhy45o
ia32gU4juWn1i74O9WZCquKqDVVfjmGeG0uX2yL6Cy6OPRgdEZ8ap9qyAGpoHc9z
oP/zu3DWpwONsVTDlEt0V/b0tQ4smeBzO0tuY/knBxzxeg2AcuAH949QHoIwVn+n
JVOKqb8LKbsyZs6yK9bKjrhO0uq5GuQobcnhYb/M8Zutd+2opi5dNWXdQOZuG17G
Gpd79J2mnzP92jDGj1yMR79JJykxbxPxEoT5Q7GD3up7Wr7LFUxK1GvGjV8nEHbG
FIMf/xkmBke8dyexPO0gOm33H0mTXN/+u6lKLoKrKITDauHgTdUyk/tDwW14L0r8
qjTmFT/x5rPVzJ2/Oy1HU3kCcUmHqkxOlwW0nbRxDaudU7wTYMIFMTKoTwzh3tUm
THQZassl2Zmk+vwFsM7Z2nT0VO2AYQjn6kyyy9NQhzHH1TSQ7/nRrFXi2GjBV61B
R3lGaazz+u0ZJrficWnxYZ7slr/wGPpIe8JAYXy0ZbaUAGSrDHLSFd7CeLaHVrfS
qoKxced8YgTY4Lkc68VGLuz0mSaWS1ws+uO77pJRcpCjpnDPv2IWlg==
-----END CERTIFICATE-----
