Certificate:
    Data:
        Version: 3 (0x2)
        Serial Number: 305419902 (0x1234567e)
    Signature Algorithm: sha256WithRSAEncryption
        Issuer: CN=CA1_sha256_4096_65537_v3_ca
        Validity
            Not Before: Apr 23 19:44:49 2018 GMT
            Not After : Apr 20 19:44:49 2028 GMT
        Subject: CN=SRK3_sha256_4096_65537_v3_ca
        Subject Public Key Info:
            Public Key Algorithm: rsaEncryption
                Public-Key: (4096 bit)
                Modulus:
                    00:b8:24:b5:8c:03:bf:08:c5:4b:c8:56:1a:26:b7:
                    8c:4e:68:23:3e:47:c6:a3:95:b1:d3:c9:b1:8b:8a:
                    b9:32:41:5b:86:ac:4c:93:73:94:66:b6:82:4f:7e:
                    c0:35:ca:62:03:61:7e:75:28:1c:cd:47:4e:a6:fc:
                    06:0d:b5:56:f0:c8:2b:37:d4:8c:6a:a2:a4:e0:f7:
                    51:68:d6:85:fc:13:5a:2b:d5:40:f6:fb:29:61:b7:
                    ef:3e:65:19:35:83:af:a2:85:55:c7:70:65:38:39:
                    e1:dc:a1:ad:7f:18:e2:43:59:9a:be:7f:71:66:ff:
                    a9:57:87:27:d6:ec:e6:28:03:75:dc:f2:5f:20:f1:
                    ef:9a:23:d7:56:45:82:05:e4:06:73:b8:4c:4e:38:
                    0d:ff:31:fb:d1:dd:cf:a1:b2:76:8d:f8:e8:97:1a:
                    de:38:4a:3e:8c:ff:70:67:be:5b:18:58:48:1b:81:
                    11:7d:c6:d8:17:8c:0a:15:b2:05:c4:ba:ac:23:bd:
                    84:cf:c4:e1:a8:20:f2:9c:70:b1:f3:40:33:f4:13:
                    ef:90:9b:e9:d9:a3:3e:3f:48:2f:8e:7e:20:69:9e:
                    12:a9:1d:5d:f1:eb:a0:66:ab:15:9d:20:f2:90:bf:
                    dd:cb:e8:cd:b5:79:19:c8:63:1f:ff:65:b9:67:f8:
                    c6:dd:64:36:dc:cc:ff:ea:ad:22:a4:3c:71:d6:3d:
                    97:a9:8e:9a:19:63:1b:35:5a:fa:be:48:35:95:18:
                    6a:72:b7:de:67:4c:32:c7:11:32:40:d6:2f:12:71:
                    42:47:e8:b9:e9:a2:f0:41:40:e9:07:cb:cd:c7:bc:
                    5c:ee:1d:41:0c:92:aa:53:35:57:0c:e6:e3:5f:e9:
                    ba:7a:6b:a8:9f:f4:05:c3:5b:26:05:2e:fe:07:90:
                    cc:1d:e1:2a:be:34:c5:db:0e:86:a5:f8:6e:67:55:
                    24:3a:d7:1f:06:26:99:69:ce:47:5b:65:c3:2d:f1:
                    8d:ba:92:e7:b7:bf:b8:a3:70:75:9e:29:8a:0d:7e:
                    f2:70:20:82:39:8a:c4:df:e7:7e:e0:0f:db:b0:32:
                    55:e7:1a:3a:4b:ed:2a:88:90:1f:d0:7c:e3:a8:f0:
                    a3:06:2f:ce:2d:e5:86:7f:95:18:d6:7e:1b:b5:3f:
                    5f:0a:34:d0:99:2b:a7:09:cf:c4:d3:2f:30:e3:ce:
                    65:b0:9b:b2:86:ea:f8:01:8e:c7:17:a3:79:d3:9c:
                    70:50:12:10:72:00:ee:6d:f2:db:84:79:d5:1d:f6:
                    0c:64:01:ce:1b:2b:81:af:61:c4:89:80:dd:15:f1:
                    c8:3c:96:8a:f7:99:90:20:f1:fe:0f:85:28:cf:e0:
                    27:41:23
                Exponent: 65537 (0x10001)
        X509v3 extensions:
            X509v3 Subject Key Identifier: 
                56:C0:DB:E5:85:41:9A:BE:3E:E9:AC:D2:44:27:58:0E:41:4F:11:8E
            X509v3 Authority Key Identifier: 
                keyid:41:04:7C:3A:0C:AD:54:08:9E:DF:82:8E:8A:0D:0C:D0:D2:E7:F5:8D
                DirName:/CN=CA1_sha256_4096_65537_v3_ca
                serial:95:B3:25:06:C6:38:57:0E

            X509v3 Basic Constraints: critical
                CA:TRUE
            X509v3 Key Usage: 
                Certificate Sign
    Signature Algorithm: sha256WithRSAEncryption
         ac:bf:f6:92:03:74:19:a4:6f:9b:8c:c6:de:0a:38:63:5d:c1:
         fa:0c:31:03:47:27:bf:42:3e:76:f3:f0:7a:a5:d9:ff:e1:08:
         c2:6d:a8:4a:ab:b6:db:6b:41:6b:da:c5:3d:d6:df:7a:9b:15:
         06:3f:44:52:60:8f:95:da:b6:6a:62:38:0e:14:ce:30:01:26:
         fc:ae:5c:69:8d:c5:f1:eb:42:19:31:bc:e7:01:5b:4a:6b:c5:
         9a:f6:c8:f9:7f:f8:64:6d:8a:70:a2:51:4f:1f:fc:c6:72:f7:
         09:dd:1e:4a:73:24:19:b4:f8:d9:ed:f4:5f:43:57:b9:37:df:
         77:aa:6f:29:5d:ef:73:70:63:0d:51:56:e1:d6:08:75:1e:bd:
         01:66:23:a4:4a:55:22:d8:df:e5:c0:ac:ae:b6:16:61:12:bb:
         da:67:c2:8d:74:55:b4:8d:e6:a2:0d:37:1b:ce:da:d5:71:ab:
         36:9d:e8:d2:d1:ed:94:74:b0:fb:f8:ad:95:cc:cb:8c:e4:86:
         36:09:6c:ab:4f:93:8f:0b:d0:00:73:0c:89:1c:18:5c:d2:f2:
         fd:59:57:9a:65:72:ea:82:62:0f:ce:d9:3d:f2:70:d2:87:b3:
         b0:f2:fa:0b:7e:81:c9:af:51:4f:62:bb:b3:96:9a:0d:5d:26:
         12:7b:92:35:2c:20:a8:74:b8:83:ba:81:dc:2c:f8:71:e6:51:
         1e:06:36:5a:7b:f4:0d:6e:89:c9:70:8a:c4:30:95:ad:59:93:
         15:46:82:eb:05:d2:37:ca:48:13:c5:f1:5a:93:ab:e1:3a:33:
         26:29:80:24:d4:03:77:6f:3e:b7:42:9d:af:e3:aa:2f:18:74:
         aa:2e:35:de:98:20:f3:13:b0:5d:ee:bf:c3:20:69:63:4c:b0:
         cd:44:ce:64:68:7d:fc:aa:c6:0a:f5:80:f5:92:a2:a3:07:e9:
         bc:1c:27:da:07:f7:7e:81:af:14:72:cf:a5:bd:2d:95:b5:9d:
         c7:38:c3:f7:0f:24:dc:ae:44:98:11:46:2e:a8:03:03:b9:71:
         8d:d0:69:75:02:50:b1:12:13:96:05:68:b5:2f:f5:98:de:a3:
         9c:8f:55:92:cb:fc:3b:e1:5c:5a:d6:c2:1a:1d:ca:0d:7c:69:
         04:c9:4b:dd:7d:62:fb:25:64:2f:9c:38:6b:a6:9b:f3:93:36:
         a6:e1:65:b7:45:ae:7e:f7:ad:7a:a2:ee:7d:8b:dd:e0:f6:36:
         83:a5:62:b5:90:63:9e:fa:72:f0:bc:ea:3e:b4:4d:60:71:83:
         f8:d7:64:6b:a7:64:23:60:97:04:be:8a:68:b8:b2:b2:f7:8f:
         27:35:fb:c0:44:e0:ff:b0
-----BEGIN CERTIFICATE-----
MIIFZDCCA0ygAwIBAgIEEjRWfjANBgkqhkiG9w0BAQsFADAmMSQwIgYDVQQDFBtD
QTFfc2hhMjU2XzQwOTZfNjU1MzdfdjNfY2EwHhcNMTgwNDIzMTk0NDQ5WhcNMjgw
NDIwMTk0NDQ5WjAnMSUwIwYDVQQDDBxTUkszX3NoYTI1Nl80MDk2XzY1NTM3X3Yz
X2NhMIICIjANBgkqhkiG9w0BAQEFAAOCAg8AMIICCgKCAgEAuCS1jAO/CMVLyFYa
JreMTmgjPkfGo5Wx08mxi4q5MkFbhqxMk3OUZraCT37ANcpiA2F+dSgczUdOpvwG
DbVW8MgrN9SMaqKk4PdRaNaF/BNaK9VA9vspYbfvPmUZNYOvooVVx3BlODnh3KGt
fxjiQ1mavn9xZv+pV4cn1uzmKAN13PJfIPHvmiPXVkWCBeQGc7hMTjgN/zH70d3P
obJ2jfjolxreOEo+jP9wZ75bGFhIG4ERfcbYF4wKFbIFxLqsI72Ez8ThqCDynHCx
80Az9BPvkJvp2aM+P0gvjn4gaZ4SqR1d8eugZqsVnSDykL/dy+jNtXkZyGMf/2W5
Z/jG3WQ23Mz/6q0ipDxx1j2XqY6aGWMbNVr6vkg1lRhqcrfeZ0wyxxEyQNYvEnFC
R+i56aLwQUDpB8vNx7xc7h1BDJKqUzVXDObjX+m6emuon/QFw1smBS7+B5DMHeEq
vjTF2w6GpfhuZ1UkOtcfBiaZac5HW2XDLfGNupLnt7+4o3B1nimKDX7ycCCCOYrE
3+d+4A/bsDJV5xo6S+0qiJAf0HzjqPCjBi/OLeWGf5UY1n4btT9fCjTQmSunCc/E
0y8w485lsJuyhur4AY7HF6N505xwUBIQcgDubfLbhHnVHfYMZAHOGyuBr2HEiYDd
FfHIPJaK95mQIPH+D4Uoz+AnQSMCAwEAAaOBmDCBlTAdBgNVHQ4EFgQUVsDb5YVB
mr4+6azSRCdYDkFPEY4wVgYDVR0jBE8wTYAUQQR8OgytVAie34KOig0M0NLn9Y2h
KqQoMCYxJDAiBgNVBAMUG0NBMV9zaGEyNTZfNDA5Nl82NTUzN192M19jYYIJAJWz
JQbGOFcOMA8GA1UdEwEB/wQFMAMBAf8wCwYDVR0PBAQDAgIEMA0GCSqGSIb3DQEB
CwUAA4ICAQCsv/aSA3QZpG+bjMbeCjhjXcH6DDEDRye/Qj528/B6pdn/4QjCbahK
q7bba0Fr2sU91t96mxUGP0RSYI+V2rZqYjgOFM4wASb8rlxpjcXx60IZMbznAVtK
a8Wa9sj5f/hkbYpwolFPH/zGcvcJ3R5KcyQZtPjZ7fRfQ1e5N993qm8pXe9zcGMN
UVbh1gh1Hr0BZiOkSlUi2N/lwKyuthZhErvaZ8KNdFW0jeaiDTcbztrVcas2nejS
0e2UdLD7+K2VzMuM5IY2CWyrT5OPC9AAcwyJHBhc0vL9WVeaZXLqgmIPztk98nDS
h7Ow8voLfoHJr1FPYruzlpoNXSYSe5I1LCCodLiDuoHcLPhx5lEeBjZae/QNbonJ
cIrEMJWtWZMVRoLrBdI3ykgTxfFak6vhOjMmKYAk1AN3bz63Qp2v46ovGHSqLjXe
mCDzE7Bd7r/DIGljTLDNRM5kaH38qsYK9YD1kqKjB+m8HCfaB/d+ga8Ucs+lvS2V
tZ3HOMP3DyTcrkSYEUYuqAMDuXGN0Gl1AlCxEhOWBWi1L/WY3qOcj1WSy/w74Vxa
1sIaHcoNfGkEyUvdfWL7JWQvnDhrppvzkzam4WW3Ra5+9616ou59i93g9jaDpWK1
kGOe+nLwvOo+tE1gcYP412Rrp2QjYJcEvopouLKy948nNfvAROD/sA==
-----END CERTIFICATE-----
