Certificate:
    Data:
        Version: 3 (0x2)
        Serial Number: 305419905 (0x12345681)
    Signature Algorithm: sha256WithRSAEncryption
        Issuer: CN=CA1_sha256_4096_65537_v3_ca
        Validity
            Not Before: Apr 23 19:44:51 2018 GMT
            Not After : Apr 20 19:44:51 2028 GMT
        Subject: CN=SRK4_sha256_4096_65537_v3_ca
        Subject Public Key Info:
            Public Key Algorithm: rsaEncryption
                Public-Key: (4096 bit)
                Modulus:
                    00:b1:40:95:4a:82:bc:a0:09:7c:56:26:3a:bf:b2:
                    f9:ca:e1:ce:b5:f5:e1:70:a9:55:75:da:ac:0d:16:
                    de:cd:8c:8e:0c:0d:53:5f:b4:1b:04:b7:06:0d:77:
                    a3:45:7e:00:38:9d:63:c5:c3:e3:4b:df:18:c6:37:
                    6b:cb:dc:1f:17:87:6e:a6:c4:31:1b:64:cd:4c:d5:
                    7e:89:eb:9c:4b:f3:7e:f8:30:55:e7:4f:7f:5b:aa:
                    ab:bb:1d:a3:fb:f7:15:8a:58:f2:9e:a1:8a:f4:34:
                    1c:ac:5d:df:fb:2b:26:8f:ef:d8:e0:97:86:a8:34:
                    d5:ab:c7:32:7d:3a:b1:57:eb:ad:de:88:7b:89:d6:
                    bc:2c:e9:58:f8:4c:86:86:56:3a:c9:8d:a2:1a:49:
                    68:5a:2b:aa:8e:73:c3:3c:11:79:f5:aa:b5:e5:9b:
                    ee:06:40:c1:c5:61:e4:34:24:6f:2b:ab:a2:84:44:
                    67:91:a3:86:fc:1a:92:bc:d4:f6:98:6a:b4:56:56:
                    19:a3:e6:20:bb:ca:51:a7:57:38:27:81:9c:fe:9b:
                    da:51:32:7c:08:c3:43:fd:6b:86:ce:81:62:68:1e:
                    3e:28:75:ff:eb:f3:d0:f4:2b:41:a5:0d:3d:38:5a:
                    99:f0:e4:53:54:1d:61:e0:81:db:52:35:26:d0:97:
                    47:e6:7e:3a:e5:57:e7:29:e9:9f:da:d6:a6:f9:93:
                    5e:cc:b7:ee:b0:a7:cf:d9:80:b4:32:5e:8c:d1:4d:
                    11:1a:75:ca:65:08:26:62:e0:07:aa:7b:92:ff:3b:
                    1a:e9:dc:40:de:73:3f:e2:11:11:d7:43:a7:a4:eb:
                    36:2b:a3:0b:fd:62:36:c6:bd:0f:ee:25:b4:7e:5a:
                    a7:93:08:f2:74:b3:d0:a1:16:2b:f7:06:b8:d1:98:
                    e7:fd:b4:cd:a9:4b:4a:d5:05:fc:30:e6:39:5c:ac:
                    94:25:1d:5d:eb:05:5b:24:13:4f:e1:b7:e5:3e:bb:
                    12:e2:16:f9:66:09:56:8d:90:4f:55:7d:52:94:64:
                    92:1b:7c:dd:1d:6d:b2:28:fd:71:bf:4a:c1:33:a8:
                    ff:16:6b:ec:f8:af:03:99:f8:82:a1:67:0f:33:23:
                    97:18:b9:85:20:43:25:44:79:c7:fc:56:e9:63:03:
                    f7:46:e9:96:5f:40:b9:c9:9a:ad:2e:1d:ae:7c:ca:
                    0e:d3:90:1f:4b:18:9e:0a:b4:4b:91:86:ab:41:a7:
                    7f:0b:98:34:93:0c:04:7d:6a:c5:84:be:dc:7b:15:
                    c1:d5:18:13:aa:50:b5:28:88:c7:8b:a8:55:4f:3e:
                    17:5e:a8:f9:98:82:40:67:3a:c7:cd:5a:c0:cc:ef:
                    e7:42:d5
                Exponent: 65537 (0x10001)
        X509v3 extensions:
            X509v3 Subject Key Identifier: 
                7F:F5:8C:BE:96:44:A0:1D:7F:B0:4C:94:AB:0D:49:8D:E7:D5:34:AB
            X509v3 Authority Key Identifier: 
                keyid:41:04:7C:3A:0C:AD:54:08:9E:DF:82:8E:8A:0D:0C:D0:D2:E7:F5:8D
                DirName:/CN=CA1_sha256_4096_65537_v3_ca
                serial:95:B3:25:06:C6:38:57:0E

            X509v3 Basic Constraints: critical
                CA:TRUE
            X509v3 Key Usage: 
                Certificate Sign
    Signature Algorithm: sha256WithRSAEncryption
         c7:37:c4:f3:b2:28:bd:bf:5d:04:b8:59:e8:66:88:ef:3f:91:
         61:14:64:96:5b:87:41:fa:1b:8d:37:6e:99:fd:10:12:33:76:
         b7:16:98:a2:6a:88:ff:15:fc:50:ac:d1:27:11:bc:50:d9:7e:
         d2:20:48:0a:d6:26:bd:28:2b:b2:8a:8e:34:6c:d6:f9:6d:0b:
         ce:d9:04:ab:c1:cd:2d:f9:3b:ef:0b:b6:62:45:b1:ef:82:53:
         5e:0f:1b:c3:0c:53:e3:9a:b6:73:fc:46:d3:55:4a:bb:16:75:
         f7:e7:63:55:1a:60:56:d3:5a:e2:12:90:0c:8c:47:15:ca:08:
         9b:be:06:47:82:bd:62:f7:04:1a:81:51:f7:34:d1:25:96:1e:
         76:b4:f7:d8:1b:f5:06:b6:36:82:5f:15:04:8d:8e:44:ad:6d:
         6e:5e:0d:47:c3:6c:5a:1d:01:d3:f8:ab:cc:89:aa:00:56:b5:
         4c:71:2e:b0:79:14:6c:aa:da:e2:b7:97:e1:56:15:9c:41:7c:
         9a:f1:28:cf:ea:aa:cd:ef:6b:bc:0e:89:50:90:f4:23:2c:05:
         2f:5b:f5:79:ae:90:ff:28:6c:b0:eb:73:7f:29:81:15:b6:69:
         8a:a3:71:6c:78:c4:8f:cc:f5:0e:f6:2f:b3:51:ab:c3:61:2e:
         00:f5:43:91:50:9c:da:82:ab:87:8d:30:51:de:7f:aa:75:5e:
         b3:be:49:4e:d1:35:54:59:9f:d0:90:3a:d8:3d:ae:09:32:92:
         e7:11:d3:2d:ce:be:91:b4:e4:70:7b:71:3b:c5:c2:ab:ce:99:
         0c:5b:51:15:20:9e:6a:42:3a:99:61:26:7a:a8:a2:87:5b:7a:
         bc:d3:5c:0e:78:01:fe:e0:09:a1:12:14:01:2a:dd:3b:c9:8c:
         56:f3:b1:15:bb:13:d5:68:d7:0c:7f:c2:ed:3d:c5:08:8c:29:
         75:86:9c:81:57:07:a4:df:c2:0c:13:7e:13:f6:94:62:9f:4d:
         7e:3f:24:ca:f2:c2:85:d4:11:5e:43:e8:23:ce:b4:95:b2:61:
         c9:94:68:65:f9:2f:06:97:6c:41:5c:1d:0c:44:11:69:5e:93:
         ad:1b:99:a3:87:75:d1:40:c8:e9:cc:ba:0a:99:a9:1f:6c:1b:
         d1:5a:69:4b:10:d8:cf:95:20:d3:c7:43:3c:be:cd:1f:a7:02:
         23:ed:1f:0b:59:9d:c5:f3:6b:ac:7f:63:ed:35:d6:82:14:a1:
         a0:ba:26:39:9d:8f:d4:16:8d:68:5a:ef:9f:e6:bd:07:1c:e1:
         36:28:43:ab:af:cf:2f:cc:cf:08:14:ee:90:31:b0:14:70:17:
         6e:46:6b:a0:cd:e3:39:b3
-----BEGIN CERTIFICATE-----
MIIFZDCCA0ygAwIBAgIEEjRWgTANBgkqhkiG9w0BAQsFADAmMSQwIgYDVQQDFBtD
QTFfc2hhMjU2XzQwOTZfNjU1MzdfdjNfY2EwHhcNMTgwNDIzMTk0NDUxWhcNMjgw
NDIwMTk0NDUxWjAnMSUwIwYDVQQDDBxTUks0X3NoYTI1Nl80MDk2XzY1NTM3X3Yz
X2NhMIICIjANBgkqhkiG9w0BAQEFAAOCAg8AMIICCgKCAgEAsUCVSoK8oAl8ViY6
v7L5yuHOtfXhcKlVddqsDRbezYyODA1TX7QbBLcGDXejRX4AOJ1jxcPjS98Yxjdr
y9wfF4dupsQxG2TNTNV+ieucS/N++DBV509/W6qrux2j+/cViljynqGK9DQcrF3f
+ysmj+/Y4JeGqDTVq8cyfTqxV+ut3oh7ida8LOlY+EyGhlY6yY2iGkloWiuqjnPD
PBF59aq15ZvuBkDBxWHkNCRvK6uihERnkaOG/BqSvNT2mGq0VlYZo+Ygu8pRp1c4
J4Gc/pvaUTJ8CMND/WuGzoFiaB4+KHX/6/PQ9CtBpQ09OFqZ8ORTVB1h4IHbUjUm
0JdH5n465VfnKemf2tam+ZNezLfusKfP2YC0Ml6M0U0RGnXKZQgmYuAHqnuS/zsa
6dxA3nM/4hER10OnpOs2K6ML/WI2xr0P7iW0flqnkwjydLPQoRYr9wa40Zjn/bTN
qUtK1QX8MOY5XKyUJR1d6wVbJBNP4bflPrsS4hb5ZglWjZBPVX1SlGSSG3zdHW2y
KP1xv0rBM6j/Fmvs+K8DmfiCoWcPMyOXGLmFIEMlRHnH/FbpYwP3RumWX0C5yZqt
Lh2ufMoO05AfSxieCrRLkYarQad/C5g0kwwEfWrFhL7cexXB1RgTqlC1KIjHi6hV
Tz4XXqj5mIJAZzrHzVrAzO/nQtUCAwEAAaOBmDCBlTAdBgNVHQ4EFgQUf/WMvpZE
oB1/sEyUqw1JjefVNKswVgYDVR0jBE8wTYAUQQR8OgytVAie34KOig0M0NLn9Y2h
KqQoMCYxJDAiBgNVBAMUG0NBMV9zaGEyNTZfNDA5Nl82NTUzN192M19jYYIJAJWz
JQbGOFcOMA8GA1UdEwEB/wQFMAMBAf8wCwYDVR0PBAQDAgIEMA0GCSqGSIb3DQEB
CwUAA4ICAQDHN8Tzsii9v10EuFnoZojvP5FhFGSWW4dB+huNN26Z/RASM3a3Fpii
aoj/FfxQrNEnEbxQ2X7SIEgK1ia9KCuyio40bNb5bQvO2QSrwc0t+TvvC7ZiRbHv
glNeDxvDDFPjmrZz/EbTVUq7FnX352NVGmBW01riEpAMjEcVygibvgZHgr1i9wQa
gVH3NNEllh52tPfYG/UGtjaCXxUEjY5ErW1uXg1Hw2xaHQHT+KvMiaoAVrVMcS6w
eRRsqtrit5fhVhWcQXya8SjP6qrN72u8DolQkPQjLAUvW/V5rpD/KGyw63N/KYEV
tmmKo3FseMSPzPUO9i+zUavDYS4A9UORUJzagquHjTBR3n+qdV6zvklO0TVUWZ/Q
kDrYPa4JMpLnEdMtzr6RtORwe3E7xcKrzpkMW1EVIJ5qQjqZYSZ6qKKHW3q801wO
eAH+4AmhEhQBKt07yYxW87EVuxPVaNcMf8LtPcUIjCl1hpyBVwek38IME34T9pRi
n01+PyTK8sKF1BFeQ+gjzrSVsmHJlGhl+S8Gl2xBXB0MRBFpXpOtG5mjh3XRQMjp
zLoKmakfbBvRWmlLENjPlSDTx0M8vs0fpwIj7R8LWZ3F82usf2PtNdaCFKGguiY5
nY/UFo1oWu+f5r0HHOE2KEOrr88vzM8IFO6QMbAUcBduRmugzeM5sw==
-----END CERTIFICATE-----
