Certificate:
    Data:
        Version: 3 (0x2)
        Serial Number: 305419909 (0x12345685)
    Signature Algorithm: ecdsa-with-SHA384
        Issuer: CN=CA1_sha384_secp384r1_v3_ca
        Validity
            Not Before: Feb 10 18:18:28 2019 GMT
            Not After : Feb  5 18:18:28 2039 GMT
        Subject: CN=SRK2_sha384_secp384r1_v3_usr
        Subject Public Key Info:
            Public Key Algorithm: id-ecPublicKey
                Public-Key: (384 bit)
                pub:
                    04:82:ac:05:77:c7:a2:c3:56:64:19:0e:23:7a:ca:
                    38:c8:b8:30:9c:2d:b9:0c:38:28:e9:c0:8d:bb:10:
                    01:9d:f9:8b:d0:55:fd:05:4a:24:54:79:a1:b6:0f:
                    f7:92:cf:f5:33:a5:38:31:c3:ca:09:70:09:1c:b7:
                    64:a9:d2:7d:94:2d:c7:4b:6b:80:a1:b8:32:1e:0b:
                    eb:13:8f:e1:01:07:a2:6c:87:8f:79:82:25:73:3e:
                    44:d5:00:e2:a2:40:0f
                ASN1 OID: secp384r1
                NIST CURVE: P-384
        X509v3 extensions:
            X509v3 Basic Constraints: 
                CA:FALSE
            Netscape Comment: 
                OpenSSL Generated Certificate
            X509v3 Subject Key Identifier: 
                3D:EB:A7:58:FF:AD:3F:F0:00:48:06:C0:E7:A1:23:A0:34:A1:02:F0
            X509v3 Authority Key Identifier: 
                keyid:A5:0E:6D:CE:0F:FD:43:05:5A:A4:DB:30:B4:B3:9A:BA:40:F4:54:8C

    Signature Algorithm: ecdsa-with-SHA384
         30:66:02:31:00:f9:92:25:36:21:7e:61:c6:35:39:94:68:82:
         ff:3e:85:80:06:db:06:39:40:b0:31:9b:3d:4f:b3:26:fd:82:
         53:aa:67:95:a4:b8:60:3e:c0:ae:78:90:b6:3f:8a:c4:53:02:
         31:00:86:b6:ef:f1:a9:b4:5d:05:4b:f8:4c:c2:c7:74:44:cc:
         1f:4e:b1:93:18:1c:20:e4:08:85:75:0a:ec:12:0a:13:b2:cd:
         f3:3b:ab:46:62:84:6d:b0:51:c3:52:a0:bb:a3
-----BEGIN CERTIFICATE-----
MIIB9zCCAXygAwIBAgIEEjRWhTAKBggqhkjOPQQDAzAlMSMwIQYDVQQDFBpDQTFf
c2hhMzg0X3NlY3AzODRyMV92M19jYTAeFw0xOTAyMTAxODE4MjhaFw0zOTAyMDUx
ODE4MjhaMCcxJTAjBgNVBAMMHFNSSzJfc2hhMzg0X3NlY3AzODRyMV92M191c3Iw
djAQBgcqhkjOPQIBBgUrgQQAIgNiAASCrAV3x6LDVmQZDiN6yjjIuDCcLbkMOCjp
wI27EAGd+YvQVf0FSiRUeaG2D/eSz/UzpTgxw8oJcAkct2Sp0n2ULcdLa4ChuDIe
C+sTj+EBB6Jsh495giVzPkTVAOKiQA+jezB5MAkGA1UdEwQCMAAwLAYJYIZIAYb4
QgENBB8WHU9wZW5TU0wgR2VuZXJhdGVkIENlcnRpZmljYXRlMB0GA1UdDgQWBBQ9
66dY/60/8ABIBsDnoSOgNKEC8DAfBgNVHSMEGDAWgBSlDm3OD/1DBVqk2zC0s5q6
QPRUjDAKBggqhkjOPQQDAwNpADBmAjEA+ZIlNiF+YcY1OZRogv8+hYAG2wY5QLAx
mz1Psyb9glOqZ5WkuGA+wK54kLY/isRTAjEAhrbv8am0XQVL+EzCx3REzB9OsZMY
HCDkCIV1CuwSChOyzfM7q0ZihG2wUcNSoLuj
-----END CERTIFICATE-----
