Certificate:
    Data:
        Version: 3 (0x2)
        Serial Number: 305419911 (0x12345687)
    Signature Algorithm: ecdsa-with-SHA384
        Issuer: CN=CA1_sha384_secp384r1_v3_ca
        Validity
            Not Before: Feb 10 18:18:28 2019 GMT
            Not After : Feb  5 18:18:28 2039 GMT
        Subject: CN=SRK4_sha384_secp384r1_v3_usr
        Subject Public Key Info:
            Public Key Algorithm: id-ecPublicKey
                Public-Key: (384 bit)
                pub:
                    04:6f:43:a5:c7:03:62:15:17:10:94:ac:01:24:35:
                    87:9b:1e:ef:fb:1a:53:c6:e7:db:09:af:1a:a0:c7:
                    15:97:3b:0c:03:4c:d1:b6:ad:0a:87:12:59:53:a0:
                    06:c7:33:06:7f:22:51:5f:91:f8:68:44:b3:8f:53:
                    b5:c2:a8:9c:c4:1c:3b:67:23:8c:a9:92:26:92:8b:
                    a8:9d:a0:9a:75:86:3f:16:74:f0:a8:60:3c:dd:05:
                    7e:fe:33:a7:57:a3:49
                ASN1 OID: secp384r1
                NIST CURVE: P-384
        X509v3 extensions:
            X509v3 Basic Constraints: 
                CA:FALSE
            Netscape Comment: 
                OpenSSL Generated Certificate
            X509v3 Subject Key Identifier: 
                55:19:47:63:D5:08:43:3F:C5:59:8A:12:DE:70:A7:16:BA:92:24:87
            X509v3 Authority Key Identifier: 
                keyid:A5:0E:6D:CE:0F:FD:43:05:5A:A4:DB:30:B4:B3:9A:BA:40:F4:54:8C

    Signature Algorithm: ecdsa-with-SHA384
         30:66:02:31:00:ef:b7:d9:70:af:94:21:50:39:e2:53:58:00:
         9b:57:31:00:d9:95:f7:f8:4f:aa:1b:d5:fa:cd:46:fe:e5:09:
         ac:10:69:44:2e:56:a5:81:9a:05:81:18:56:4f:20:89:cf:02:
         31:00:de:08:d4:91:f7:be:5d:f1:27:81:3e:0e:b2:b9:ac:c2:
         10:ff:25:e5:db:20:42:c2:e9:42:69:c0:43:a4:7e:93:18:63:
         77:fb:11:c7:df:8c:91:49:74:95:5f:1d:c8:44
-----BEGIN CERTIFICATE-----
MIIB9zCCAXygAwIBAgIEEjRWhzAKBggqhkjOPQQDAzAlMSMwIQYDVQQDFBpDQTFf
c2hhMzg0X3NlY3AzODRyMV92M19jYTAeFw0xOTAyMTAxODE4MjhaFw0zOTAyMDUx
ODE4MjhaMCcxJTAjBgNVBAMMHFNSSzRfc2hhMzg0X3NlY3AzODRyMV92M191c3Iw
djAQBgcqhkjOPQIBBgUrgQQAIgNiAARvQ6XHA2IVFxCUrAEkNYebHu/7GlPG59sJ
rxqgxxWXOwwDTNG2rQqHEllToAbHMwZ/IlFfkfhoRLOPU7XCqJzEHDtnI4ypkiaS
i6idoJp1hj8WdPCoYDzdBX7+M6dXo0mjezB5MAkGA1UdEwQCMAAwLAYJYIZIAYb4
QgENBB8WHU9wZW5TU0wgR2VuZXJhdGVkIENlcnRpZmljYXRlMB0GA1UdDgQWBBRV
GUdj1QhDP8VZihLecKcWupIkhzAfBgNVHSMEGDAWgBSlDm3OD/1DBVqk2zC0s5q6
QPRUjDAKBggqhkjOPQQDAwNpADBmAjEA77fZcK+UIVA54lNYAJtXMQDZlff4T6ob
1frNRv7lCawQaUQuVqWBmgWBGFZPIInPAjEA3gjUkfe+XfEngT4OsrmswhD/JeXb
IELC6UJpwEOkfpMYY3f7EcffjJFJdJVfHchE
-----END CERTIFICATE-----
