Certificate:
    Data:
        Version: 3 (0x2)
        Serial Number: 305419910 (0x12345686)
    Signature Algorithm: ecdsa-with-SHA384
        Issuer: CN=CA1_sha384_secp384r1_v3_ca
        Validity
            Not Before: Feb 10 18:18:28 2019 GMT
            Not After : Feb  5 18:18:28 2039 GMT
        Subject: CN=SRK3_sha384_secp384r1_v3_usr
        Subject Public Key Info:
            Public Key Algorithm: id-ecPublicKey
                Public-Key: (384 bit)
                pub:
                    04:35:05:c8:20:8d:83:07:44:93:5a:54:f3:3f:77:
                    3e:7e:7d:e1:70:54:1d:99:8a:88:6c:fe:17:66:6e:
                    7f:5f:00:8d:7f:01:e7:35:2b:ad:4e:4e:0b:21:c3:
                    9a:dd:70:73:9e:56:33:71:0d:0b:ee:33:91:1e:a6:
                    05:bb:e4:b4:92:c9:91:37:9d:54:2b:7b:7f:bc:37:
                    d2:b3:05:b3:5b:80:dc:1f:29:62:d4:89:3b:3f:76:
                    30:29:2d:e1:6e:3d:a6
                ASN1 OID: secp384r1
                NIST CURVE: P-384
        X509v3 extensions:
            X509v3 Basic Constraints: 
                CA:FALSE
            Netscape Comment: 
                OpenSSL Generated Certificate
            X509v3 Subject Key Identifier: 
                44:1C:31:5D:7E:5A:3C:B3:DA:98:E7:0B:F1:4E:9B:4A:21:1A:D8:4C
            X509v3 Authority Key Identifier: 
                keyid:A5:0E:6D:CE:0F:FD:43:05:5A:A4:DB:30:B4:B3:9A:BA:40:F4:54:8C

    Signature Algorithm: ecdsa-with-SHA384
         30:64:02:30:70:6e:c8:3e:33:19:31:a8:d9:9d:2e:91:0d:34:
         e8:62:3f:4b:0b:f9:8f:84:2d:ac:c3:f6:67:55:1e:94:ba:f0:
         fb:b1:a3:a9:8c:d8:33:5b:23:49:64:db:4b:da:c2:eb:02:30:
         3e:84:43:bf:d6:de:61:55:65:54:db:70:5e:db:12:d3:10:d6:
         cc:26:3c:cb:2f:4c:79:a9:27:bb:bc:3b:20:67:56:a6:74:9d:
         db:6c:78:58:b2:ea:9a:a7:21:ce:ba:b8
-----BEGIN CERTIFICATE-----
MIIB9TCCAXygAwIBAgIEEjRWhjAKBggqhkjOPQQDAzAlMSMwIQYDVQQDFBpDQTFf
c2hhMzg0X3NlY3AzODRyMV92M19jYTAeFw0xOTAyMTAxODE4MjhaFw0zOTAyMDUx
ODE4MjhaMCcxJTAjBgNVBAMMHFNSSzNfc2hhMzg0X3NlY3AzODRyMV92M191c3Iw
djAQBgcqhkjOPQIBBgUrgQQAIgNiAAQ1BcggjYMHRJNaVPM/dz5+feFwVB2Ziohs
/hdmbn9fAI1/Aec1K61OTgshw5rdcHOeVjNxDQvuM5EepgW75LSSyZE3nVQre3+8
N9KzBbNbgNwfKWLUiTs/djApLeFuPaajezB5MAkGA1UdEwQCMAAwLAYJYIZIAYb4
QgENBB8WHU9wZW5TU0wgR2VuZXJhdGVkIENlcnRpZmljYXRlMB0GA1UdDgQWBBRE
HDFdflo8s9qY5wvxTptKIRrYTDAfBgNVHSMEGDAWgBSlDm3OD/1DBVqk2zC0s5q6
QPRUjDAKBggqhkjOPQQDAwNnADBkAjBwbsg+MxkxqNmdLpENNOhiP0sL+Y+ELazD
9mdVHpS68Puxo6mM2DNbI0lk20vawusCMD6EQ7/W3mFVZVTbcF7bEtMQ1swmPMsv
THmpJ7u8OyBnVqZ0ndtseFiy6pqnIc66uA==
-----END CERTIFICATE-----
