Certificate:
    Data:
        Version: 3 (0x2)
        Serial Number: 305419908 (0x12345684)
    Signature Algorithm: ecdsa-with-SHA384
        Issuer: CN=CA1_sha384_secp384r1_v3_ca
        Validity
            Not Before: Feb 10 18:18:28 2019 GMT
            Not After : Feb  5 18:18:28 2039 GMT
        Subject: CN=SRK1_sha384_secp384r1_v3_usr
        Subject Public Key Info:
            Public Key Algorithm: id-ecPublicKey
                Public-Key: (384 bit)
                pub:
                    04:20:f2:b4:48:21:b6:87:8a:35:e4:93:96:bc:71:
                    82:b4:cb:27:b5:18:d6:04:85:97:38:f4:98:4c:6d:
                    27:c1:39:b1:4f:ce:23:8c:fb:09:c1:04:46:29:4c:
                    98:90:10:2d:da:1f:0d:01:5f:e0:b4:1a:c8:9a:3e:
                    4f:53:37:ad:1c:25:46:24:b3:f6:b1:61:62:a2:e1:
                    61:90:68:b2:11:68:75:ed:f0:e1:a9:33:66:66:d1:
                    5d:4a:97:9b:b0:26:3d
                ASN1 OID: secp384r1
                NIST CURVE: P-384
        X509v3 extensions:
            X509v3 Basic Constraints: 
                CA:FALSE
            Netscape Comment: 
                OpenSSL Generated Certificate
            X509v3 Subject Key Identifier: 
                2A:23:CB:66:FC:37:67:32:A7:1A:CB:17:08:BA:66:8E:9A:A6:8B:A3
            X509v3 Authority Key Identifier: 
                keyid:A5:0E:6D:CE:0F:FD:43:05:5A:A4:DB:30:B4:B3:9A:BA:40:F4:54:8C

    Signature Algorithm: ecdsa-with-SHA384
         30:65:02:31:00:a9:90:1a:e5:27:23:f5:73:39:db:49:2b:24:
         96:38:96:dc:35:7b:cb:e4:ba:af:e0:bd:04:32:e2:35:0e:bb:
         01:09:cc:e5:df:41:79:e2:39:04:3a:b9:23:d1:48:8d:c8:02:
         30:1d:f6:0a:3d:2e:22:6d:81:6e:09:11:92:c4:f2:3f:99:9b:
         ea:95:55:71:6b:38:70:51:c5:48:05:c0:d5:04:e9:b7:03:d1:
         9f:f3:ac:21:8a:e4:83:da:bd:76:17:eb:3e
-----BEGIN CERTIFICATE-----
MIIB9jCCAXygAwIBAgIEEjRWhDAKBggqhkjOPQQDAzAlMSMwIQYDVQQDFBpDQTFf
c2hhMzg0X3NlY3AzODRyMV92M19jYTAeFw0xOTAyMTAxODE4MjhaFw0zOTAyMDUx
ODE4MjhaMCcxJTAjBgNVBAMMHFNSSzFfc2hhMzg0X3NlY3AzODRyMV92M191c3Iw
djAQBgcqhkjOPQIBBgUrgQQAIgNiAAQg8rRIIbaHijXkk5a8cYK0yye1GNYEhZc4
9JhMbSfBObFPziOM+wnBBEYpTJiQEC3aHw0BX+C0GsiaPk9TN60cJUYks/axYWKi
4WGQaLIRaHXt8OGpM2Zm0V1Kl5uwJj2jezB5MAkGA1UdEwQCMAAwLAYJYIZIAYb4
QgENBB8WHU9wZW5TU0wgR2VuZXJhdGVkIENlcnRpZmljYXRlMB0GA1UdDgQWBBQq
I8tm/DdnMqcayxcIumaOmqaLozAfBgNVHSMEGDAWgBSlDm3OD/1DBVqk2zC0s5q6
QPRUjDAKBggqhkjOPQQDAwNoADBlAjEAqZAa5Scj9XM520krJJY4ltw1e8vkuq/g
vQQy4jUOuwEJzOXfQXniOQQ6uSPRSI3IAjAd9go9LiJtgW4JEZLE8j+Zm+qVVXFr
OHBRxUgFwNUE6bcD0Z/zrCGK5IPavXYX6z4=
-----END CERTIFICATE-----
